MPLINK 5.00, LINKER
Linker Map File - Created Tue Oct 08 22:09:47 2019

                                 Section Info
                  Section       Type    Address   Location Size(Bytes)
                ---------  ---------  ---------  ---------  ---------
               _entry_scn       code   0x000000    program   0x000006
    .romdata_module_fan.o    romdata   0x000006    program   0x000002
      InterruptVectorHigh       code   0x000008    program   0x000006
                   .cinit    romdata   0x00000e    program   0x00006e
     .code_module_motor.o       code   0x00007c    program   0x000c36
.code_module_management.o       code   0x000cb2    program   0x00075e
.code_module_indication.o       code   0x001410    program   0x0006be
             .code_menu.o       code   0x001ace    program   0x000620
.code_module_analog_inputs.o       code   0x0020ee    program   0x00037a
             .code_main.o       code   0x002468    program   0x0001f2
              .code_osa.o       code   0x00265a    program   0x0001e0
.code_module_logic_inputs.o       code   0x00283a    program   0x0001ae
.romdata_module_analog_inputs.o    romdata   0x0029e8    program   0x00017e
       .code_interrupts.o       code   0x002b66    program   0x00013e
       .code_module_fan.o       code   0x002ca4    program   0x00013a
           .code_eeprom.o       code   0x002dde    program   0x0000e2
     .code_module_sound.o       code   0x002ec0    program   0x0000ca
               _cinit_scn       code   0x002f8a    program   0x00009e
              .code_i2c.o       code   0x003028    program   0x00009a
          .romdata_menu.o    romdata   0x0030c2    program   0x000058
  .romdata_module_motor.o    romdata   0x00311a    program   0x000048
                     PROG       code   0x003162    program   0x00003c
                   STRING       code   0x00319e    program   0x000034
        .romdata_eeprom.o    romdata   0x0031d2    program   0x00002f
           .idata_osa.o_i    romdata   0x003201    program   0x000000
   .idata_task_motors.o_i    romdata   0x003201    program   0x000000
  .romdata_module_sound.o    romdata   0x003201    program   0x000000
.romdata_task_management.o    romdata   0x003201    program   0x000000
    .romdata_interrupts.o    romdata   0x003201    program   0x000000
     .romdata_task_outs.o    romdata   0x003201    program   0x000000
           .idata_i2c.o_i    romdata   0x003201    program   0x000000
        .idata_eeprom.o_i    romdata   0x003201    program   0x000000
.romdata_module_logic_inputs.o    romdata   0x003201    program   0x000000
.romdata_task_analog_inputs.o    romdata   0x003201    program   0x000000
      .romdata_fxd1616u.o    romdata   0x003201    program   0x000000
        .idata___init.o_i    romdata   0x003201    program   0x000000
        .romdata___init.o    romdata   0x003201    program   0x000000
.idata_task_logic_inputs.o_i    romdata   0x003201    program   0x000000
         .code_fxd1616u.o       code   0x003202    program   0x00002c
        .code_task_outs.o       code   0x00322e    program   0x000020
                    .code       code   0x00324e    program   0x000020
.romdata_module_indication.o    romdata   0x00326e    program   0x00001f
.idata_task_management.o_i    romdata   0x00328d    program   0x000000
.romdata_task_logic_inputs.o    romdata   0x00328d    program   0x000000
   .romdata_task_motors.o    romdata   0x00328d    program   0x000000
     .idata_task_outs.o_i    romdata   0x00328d    program   0x000000
           .romdata_i2c.o    romdata   0x00328d    program   0x000000
         .romdata_c018i.o    romdata   0x00328d    program   0x000000
      .idata_fxd1616u.o_i    romdata   0x00328d    program   0x000000
         .idata_c018i.o_i    romdata   0x00328d    program   0x000000
.idata_task_analog_inputs.o_i    romdata   0x00328d    program   0x000000
           .romdata_osa.o    romdata   0x00328d    program   0x000000
.romdata_module_management.o    romdata   0x00328d    program   0x000000
          .romdata_main.o    romdata   0x00328d    program   0x000000
          .idata_main.o_i    romdata   0x00328d    program   0x000000
            .code_c018i.o       code   0x00328e    program   0x000000
             _startup_scn       code   0x00328e    program   0x00001c
      .code_task_motors.o       code   0x0032aa    program   0x000018
  .code_task_management.o       code   0x0032c2    program   0x000018
.code_task_logic_inputs.o       code   0x0032da    program   0x000018
.code_task_analog_inputs.o       code   0x0032f2    program   0x000018
           .code___init.o       code   0x00330a    program   0x000002
  .idata_module_sound.o_i    romdata   0x00330c    program   0x000006
  .idata_module_motor.o_i    romdata   0x003312    program   0x000033
.idata_module_management.o_i    romdata   0x003345    program   0x000010
.idata_module_logic_inputs.o_i    romdata   0x003355    program   0x00000e
.idata_module_indication.o_i    romdata   0x003363    program   0x00001d
    .idata_module_fan.o_i    romdata   0x003380    program   0x00000e
.idata_module_analog_inputs.o_i    romdata   0x00338e    program   0x000011
          .idata_menu.o_i    romdata   0x00339f    program   0x000004
    .idata_interrupts.o_i    romdata   0x0033a3    program   0x000004
     .config_1fff8_main.o    romdata   0x01fff8    program   0x000001
     .config_1fff9_main.o    romdata   0x01fff9    program   0x000001
     .config_1fffa_main.o    romdata   0x01fffa    program   0x000001
     .config_1fffb_main.o    romdata   0x01fffb    program   0x000001
     .config_1fffc_main.o    romdata   0x01fffc    program   0x000001
     .config_1fffd_main.o    romdata   0x01fffd    program   0x000001
                 os_bsems      udata   0x000000       data   0x00001e
                MATH_DATA      udata   0x00001e       data   0x000014
                 .tmpdata      udata   0x000032       data   0x000008
                   ACCESS      udata   0x00003a       data   0x000005
 InterruptHandlerHigh_tmp      udata   0x00003f       data   0x000002
    .idata_module_motor.o      idata   0x000060       data   0x000033
.idata_module_indication.o      idata   0x000093       data   0x00001d
.idata_module_analog_inputs.o      idata   0x0000b0       data   0x000011
.idata_module_management.o      idata   0x0000c1       data   0x000010
.idata_module_logic_inputs.o      idata   0x0000d1       data   0x00000e
      .idata_module_fan.o      idata   0x0000df       data   0x00000e
           .udata_c018i.o      udata   0x0000ed       data   0x00000a
    .idata_module_sound.o      idata   0x0000f7       data   0x000006
 .udata_task_management.o      udata   0x0000fd       data   0x000000
.idata_task_logic_inputs.o      idata   0x0000fd       data   0x000000
 .idata_task_management.o      idata   0x0000fd       data   0x000000
.udata_task_logic_inputs.o      udata   0x0000fd       data   0x000000
.idata_task_analog_inputs.o      idata   0x0000fd       data   0x000000
     .udata_task_motors.o      udata   0x0000fd       data   0x000000
     .idata_task_motors.o      idata   0x0000fd       data   0x000000
       .udata_task_outs.o      udata   0x0000fd       data   0x000000
       .idata_task_outs.o      idata   0x0000fd       data   0x000000
             .udata_i2c.o      udata   0x0000fd       data   0x000000
             .idata_i2c.o      idata   0x0000fd       data   0x000000
          .udata_eeprom.o      udata   0x0000fd       data   0x000000
          .idata_eeprom.o      idata   0x0000fd       data   0x000000
        .udata_fxd1616u.o      udata   0x0000fd       data   0x000000
        .idata_fxd1616u.o      idata   0x0000fd       data   0x000000
          .udata___init.o      udata   0x0000fd       data   0x000000
          .idata___init.o      idata   0x0000fd       data   0x000000
.udata_task_analog_inputs.o      udata   0x0000fd       data   0x000000
             .idata_osa.o      idata   0x0000fd       data   0x000000
             .udata_osa.o      udata   0x0000fd       data   0x000000
    .udata_module_sound.o      udata   0x0000fd       data   0x000000
           .idata_c018i.o      idata   0x0000fd       data   0x000000
.udata_module_logic_inputs.o      udata   0x0000fd       data   0x000000
.udata_module_indication.o      udata   0x0000fd       data   0x000000
      .udata_module_fan.o      udata   0x0000fd       data   0x000000
.udata_module_analog_inputs.o      udata   0x0000fd       data   0x000000
      .udata_interrupts.o      udata   0x0000fd       data   0x000000
            .udata_menu.o      udata   0x0000fd       data   0x000000
            .idata_main.o      idata   0x0000fd       data   0x000000
            .udata_main.o      udata   0x0000fd       data   0x000000
      .idata_interrupts.o      idata   0x000100       data   0x000004
                   .stack      udata   0x000e00       data   0x000100
.udata_module_management.o      udata   0x000f00       data   0x000037
    .udata_module_motor.o      udata   0x000f37       data   0x000005
            .idata_menu.o      idata   0x000f3c       data   0x000004
              SFR_BANKED0      udata   0x000f40       data   0x000020
            SFR_UNBANKED0      udata   0x000f60       data   0x0000a0



                              Program Memory Usage 
                               Start         End      
                           ---------   ---------      
                            0x000000    0x003200      
                            0x003202    0x00328c      
                            0x00328e    0x0033a6      
                            0x01fff8    0x01fffd      
            13227 out of 131072 program addresses used, program memory utilization is 10%



                              Symbols - Sorted by Name
                     Name    Address   Location    Storage File                     
                ---------  ---------  ---------  --------- ---------                
               DataEERead   0x002de6    program     extern D:\Vl_prj\Solid_fuel_boiler(rev 2_0)\Software\src\EEPROMmemory\eeprom.c
              DataEEWrite   0x002e12    program     extern D:\Vl_prj\Solid_fuel_boiler(rev 2_0)\Software\src\EEPROMmemory\eeprom.c
                 FXD1616U   0x003202    program     extern E:\3.46\pic18-lt\cxx-framework\src\traditional\math\fxd1616u.c
                 FXM1616U   0x003162    program     extern E:\3.46\pic18-lt\cxx-framework\src\traditional\math\fxm1616u.asm
                 Init_PIC   0x002468    program     extern D:\Vl_prj\Solid_fuel_boiler(rev 2_0)\Software\src\Main\main.c
     InterruptHandlerHigh   0x002b66    program     extern D:\Vl_prj\Solid_fuel_boiler(rev 2_0)\Software\src\Interrupts\interrupts.c
      InterruptVectorHigh   0x000008    program     extern D:\Vl_prj\Solid_fuel_boiler(rev 2_0)\Software\src\Interrupts\interrupts.c
Intr_get_cnt_zero_crossing   0x002c6a    program     extern D:\Vl_prj\Solid_fuel_boiler(rev 2_0)\Software\src\Interrupts\interrupts.c
Intr_get_is_impulse_agitator_sensor   0x002c82    program     extern D:\Vl_prj\Solid_fuel_boiler(rev 2_0)\Software\src\Interrupts\interrupts.c
   Intr_get_is_zero_cross   0x002c7c    program     extern D:\Vl_prj\Solid_fuel_boiler(rev 2_0)\Software\src\Interrupts\interrupts.c
Intr_set_cnt_zero_crossing   0x002c5e    program     extern D:\Vl_prj\Solid_fuel_boiler(rev 2_0)\Software\src\Interrupts\interrupts.c
Intr_set_is_impulse_agitator_sensor   0x002c88    program     extern D:\Vl_prj\Solid_fuel_boiler(rev 2_0)\Software\src\Interrupts\interrupts.c
   Intr_set_is_zero_cross   0x002c74    program     extern D:\Vl_prj\Solid_fuel_boiler(rev 2_0)\Software\src\Interrupts\interrupts.c
          M_AI_ConvertADC   0x002166    program     extern D:\Vl_prj\Solid_fuel_boiler(rev 2_0)\Software\src\Module_analog_inputs\module_analog_inputs.c
        M_AI_Get_ADC_Data   0x0020ee    program     extern D:\Vl_prj\Solid_fuel_boiler(rev 2_0)\Software\src\Module_analog_inputs\module_analog_inputs.c
   M_AI_Mask_ADC_channels   0x002b62    program     extern D:\Vl_prj\Solid_fuel_boiler(rev 2_0)\Software\src\Module_analog_inputs\module_analog_inputs.c
     M_AI_Offset_in_table   0x002b5e    program     extern D:\Vl_prj\Solid_fuel_boiler(rev 2_0)\Software\src\Module_analog_inputs\module_analog_inputs.c
             M_AI_OpenADC   0x002122    program     extern D:\Vl_prj\Solid_fuel_boiler(rev 2_0)\Software\src\Module_analog_inputs\module_analog_inputs.c
      M_AI_Processing_ADC   0x00220e    program     extern D:\Vl_prj\Solid_fuel_boiler(rev 2_0)\Software\src\Module_analog_inputs\module_analog_inputs.c
             M_AI_ReadADC   0x002110    program     extern D:\Vl_prj\Solid_fuel_boiler(rev 2_0)\Software\src\Module_analog_inputs\module_analog_inputs.c
                 M_AI_Run   0x0021e6    program     extern D:\Vl_prj\Solid_fuel_boiler(rev 2_0)\Software\src\Module_analog_inputs\module_analog_inputs.c
              M_AI_Search   0x00216e    program     extern D:\Vl_prj\Solid_fuel_boiler(rev 2_0)\Software\src\Module_analog_inputs\module_analog_inputs.c
          M_AI_SetChanADC   0x002152    program     extern D:\Vl_prj\Solid_fuel_boiler(rev 2_0)\Software\src\Module_analog_inputs\module_analog_inputs.c
M_AI_Size_Table_temperature   0x002b64    program     extern D:\Vl_prj\Solid_fuel_boiler(rev 2_0)\Software\src\Module_analog_inputs\module_analog_inputs.c
         M_AI_Table_PT100   0x002ab0    program     extern D:\Vl_prj\Solid_fuel_boiler(rev 2_0)\Software\src\Module_analog_inputs\module_analog_inputs.c
M_AI_Table_thermoresistor   0x0029e8    program     extern D:\Vl_prj\Solid_fuel_boiler(rev 2_0)\Software\src\Module_analog_inputs\module_analog_inputs.c
   M_AI_Type_Table_Sorted   0x002b5c    program     extern D:\Vl_prj\Solid_fuel_boiler(rev 2_0)\Software\src\Module_analog_inputs\module_analog_inputs.c
           M_Fan_work_fan   0x002d56    program     extern D:\Vl_prj\Solid_fuel_boiler(rev 2_0)\Software\src\Module_fan\module_fan.c
      M_Ind_7_Segment_Out   0x001456    program     extern D:\Vl_prj\Solid_fuel_boiler(rev 2_0)\Software\src\Module_indication\module_indication.c
       M_Ind_Get_Ind_data   0x001418    program     extern D:\Vl_prj\Solid_fuel_boiler(rev 2_0)\Software\src\Module_indication\module_indication.c
 M_Ind_Get_Previous_State   0x001426    program     extern D:\Vl_prj\Solid_fuel_boiler(rev 2_0)\Software\src\Module_indication\module_indication.c
          M_Ind_Get_state   0x00143c    program     extern D:\Vl_prj\Solid_fuel_boiler(rev 2_0)\Software\src\Module_indication\module_indication.c
       M_Ind_LED_blinking   0x00191c    program     extern D:\Vl_prj\Solid_fuel_boiler(rev 2_0)\Software\src\Module_indication\module_indication.c
          M_Ind_Portraits   0x00326e    program     extern D:\Vl_prj\Solid_fuel_boiler(rev 2_0)\Software\src\Module_indication\module_indication.c
                M_Ind_Run   0x0015c0    program     extern D:\Vl_prj\Solid_fuel_boiler(rev 2_0)\Software\src\Module_indication\module_indication.c
 M_Ind_Set_Previous_State   0x00142c    program     extern D:\Vl_prj\Solid_fuel_boiler(rev 2_0)\Software\src\Module_indication\module_indication.c
     M_Ind_Set_blink_mode   0x001410    program     extern D:\Vl_prj\Solid_fuel_boiler(rev 2_0)\Software\src\Module_indication\module_indication.c
          M_Ind_Set_state   0x001434    program     extern D:\Vl_prj\Solid_fuel_boiler(rev 2_0)\Software\src\Module_indication\module_indication.c
      M_Ind_TimerAutoExit   0x0017dc    program     extern D:\Vl_prj\Solid_fuel_boiler(rev 2_0)\Software\src\Module_indication\module_indication.c
    M_Ind_View_SW_version   0x0018d8    program     extern D:\Vl_prj\Solid_fuel_boiler(rev 2_0)\Software\src\Module_indication\module_indication.c
            M_Ind_bin2dec   0x0014ac    program     extern D:\Vl_prj\Solid_fuel_boiler(rev 2_0)\Software\src\Module_indication\module_indication.c
     M_Ind_blinking_7segm   0x00174c    program     extern D:\Vl_prj\Solid_fuel_boiler(rev 2_0)\Software\src\Module_indication\module_indication.c
       M_Ind_led_fan_mode   0x00157c    program     extern D:\Vl_prj\Solid_fuel_boiler(rev 2_0)\Software\src\Module_indication\module_indication.c
    M_Ind_setTimeAutoExit   0x0017d0    program     extern D:\Vl_prj\Solid_fuel_boiler(rev 2_0)\Software\src\Module_indication\module_indication.c
   M_Ind_temperature_real   0x001886    program     extern D:\Vl_prj\Solid_fuel_boiler(rev 2_0)\Software\src\Module_indication\module_indication.c
         M_Ind_time_const   0x003289    program     extern D:\Vl_prj\Solid_fuel_boiler(rev 2_0)\Software\src\Module_indication\module_indication.c
       M_Ind_view_failure   0x001732    program     extern D:\Vl_prj\Solid_fuel_boiler(rev 2_0)\Software\src\Module_indication\module_indication.c
 M_Ind_view_num_page_menu   0x001828    program     extern D:\Vl_prj\Solid_fuel_boiler(rev 2_0)\Software\src\Module_indication\module_indication.c
M_Ind_view_parameter_menu   0x001846    program     extern D:\Vl_prj\Solid_fuel_boiler(rev 2_0)\Software\src\Module_indication\module_indication.c
M_Ind_view_temperature_or_fan_level_setup   0x0017a6    program     extern D:\Vl_prj\Solid_fuel_boiler(rev 2_0)\Software\src\Module_indication\module_indication.c
          M_Ind_view_text   0x001702    program     extern D:\Vl_prj\Solid_fuel_boiler(rev 2_0)\Software\src\Module_indication\module_indication.c
       M_LI_Get_Key_State   0x002862    program     extern D:\Vl_prj\Solid_fuel_boiler(rev 2_0)\Software\src\Module_logic_inputs\module_logic_inputs.c
  M_LI_Get_Limit_Switches   0x002854    program     extern D:\Vl_prj\Solid_fuel_boiler(rev 2_0)\Software\src\Module_logic_inputs\module_logic_inputs.c
        M_LI_Key_Question   0x0028fe    program     extern D:\Vl_prj\Solid_fuel_boiler(rev 2_0)\Software\src\Module_logic_inputs\module_logic_inputs.c
                 M_LI_Run   0x00299e    program     extern D:\Vl_prj\Solid_fuel_boiler(rev 2_0)\Software\src\Module_logic_inputs\module_logic_inputs.c
       M_LI_get_ptr_to_ls   0x00283a    program     extern D:\Vl_prj\Solid_fuel_boiler(rev 2_0)\Software\src\Module_logic_inputs\module_logic_inputs.c
        M_LI_is_LS_worked   0x002870    program     extern D:\Vl_prj\Solid_fuel_boiler(rev 2_0)\Software\src\Module_logic_inputs\module_logic_inputs.c
         M_LI_ls_question   0x002882    program     extern D:\Vl_prj\Solid_fuel_boiler(rev 2_0)\Software\src\Module_logic_inputs\module_logic_inputs.c
       M_LI_set_ptr_to_ls   0x002844    program     extern D:\Vl_prj\Solid_fuel_boiler(rev 2_0)\Software\src\Module_logic_inputs\module_logic_inputs.c
M_Menu_Set_src_param_menu   0x001b22    program     extern D:\Vl_prj\Solid_fuel_boiler(rev 2_0)\Software\src\Menu\menu.c
M_Menu_entry_rotation_clean_chimney   0x001b90    program     extern D:\Vl_prj\Solid_fuel_boiler(rev 2_0)\Software\src\Menu\menu.c
M_Menu_parameter_is_changed   0x001b52    program     extern D:\Vl_prj\Solid_fuel_boiler(rev 2_0)\Software\src\Menu\menu.c
M_Menu_write_changed_param   0x001b2c    program     extern D:\Vl_prj\Solid_fuel_boiler(rev 2_0)\Software\src\Menu\menu.c
   M_Menu_write_parameter   0x001b64    program     extern D:\Vl_prj\Solid_fuel_boiler(rev 2_0)\Software\src\Menu\menu.c
     M_Mngm_Check_Failure   0x000dba    program     extern D:\Vl_prj\Solid_fuel_boiler(rev 2_0)\Software\src\Module_management\module_management.c
  M_Mngm_Get_Code_Failure   0x000d66    program     extern D:\Vl_prj\Solid_fuel_boiler(rev 2_0)\Software\src\Module_management\module_management.c
M_Mngm_Get_parameters_buffer   0x000d44    program     extern D:\Vl_prj\Solid_fuel_boiler(rev 2_0)\Software\src\Module_management\module_management.c
M_Mngm_Get_previous_state   0x000d5a    program     extern D:\Vl_prj\Solid_fuel_boiler(rev 2_0)\Software\src\Module_management\module_management.c
         M_Mngm_Get_state   0x000d60    program     extern D:\Vl_prj\Solid_fuel_boiler(rev 2_0)\Software\src\Module_management\module_management.c
               M_Mngm_Run   0x000eac    program     extern D:\Vl_prj\Solid_fuel_boiler(rev 2_0)\Software\src\Module_management\module_management.c
  M_Mngm_Set_Code_Failure   0x000d6c    program     extern D:\Vl_prj\Solid_fuel_boiler(rev 2_0)\Software\src\Module_management\module_management.c
         M_Mngm_Set_state   0x000d52    program     extern D:\Vl_prj\Solid_fuel_boiler(rev 2_0)\Software\src\Module_management\module_management.c
 M_Mngm_Set_state_draught   0x000d74    program     extern D:\Vl_prj\Solid_fuel_boiler(rev 2_0)\Software\src\Module_management\module_management.c
         M_Mngm_accel_fan   0x001114    program     extern D:\Vl_prj\Solid_fuel_boiler(rev 2_0)\Software\src\Module_management\module_management.c
           M_Mngm_burning   0x000f78    program     extern D:\Vl_prj\Solid_fuel_boiler(rev 2_0)\Software\src\Module_management\module_management.c
M_Mngm_check_change_temperature_water   0x000cc8    program     extern D:\Vl_prj\Solid_fuel_boiler(rev 2_0)\Software\src\Module_management\module_management.c
M_Mngm_check_draught_failure   0x000d7c    program     extern D:\Vl_prj\Solid_fuel_boiler(rev 2_0)\Software\src\Module_management\module_management.c
     M_Mngm_clean_chimney   0x0010e4    program     extern D:\Vl_prj\Solid_fuel_boiler(rev 2_0)\Software\src\Module_management\module_management.c
   M_Mngm_clear_accel_fan   0x0010fc    program     extern D:\Vl_prj\Solid_fuel_boiler(rev 2_0)\Software\src\Module_management\module_management.c
 M_Mngm_clear_cyclic_mode   0x001108    program     extern D:\Vl_prj\Solid_fuel_boiler(rev 2_0)\Software\src\Module_management\module_management.c
    M_Mngm_clear_timeouts   0x000d1e    program     extern D:\Vl_prj\Solid_fuel_boiler(rev 2_0)\Software\src\Module_management\module_management.c
       M_Mngm_cyclic_mode   0x0011e4    program     extern D:\Vl_prj\Solid_fuel_boiler(rev 2_0)\Software\src\Module_management\module_management.c
           M_Mngm_failure   0x0010f0    program     extern D:\Vl_prj\Solid_fuel_boiler(rev 2_0)\Software\src\Module_management\module_management.c
       M_Mngm_fuel_supply   0x000f38    program     extern D:\Vl_prj\Solid_fuel_boiler(rev 2_0)\Software\src\Module_management\module_management.c
 M_Mngm_get_burning_state   0x000d36    program     extern D:\Vl_prj\Solid_fuel_boiler(rev 2_0)\Software\src\Module_management\module_management.c
M_Mngm_get_fanParamOffset   0x000cb2    program     extern D:\Vl_prj\Solid_fuel_boiler(rev 2_0)\Software\src\Module_management\module_management.c
     M_Mngm_get_pFanLevel   0x000cb8    program     extern D:\Vl_prj\Solid_fuel_boiler(rev 2_0)\Software\src\Module_management\module_management.c
   M_Mngm_get_phase_cycle   0x000cc2    program     extern D:\Vl_prj\Solid_fuel_boiler(rev 2_0)\Software\src\Module_management\module_management.c
     M_Mngm_need_to_pause   0x000f02    program     extern D:\Vl_prj\Solid_fuel_boiler(rev 2_0)\Software\src\Module_management\module_management.c
             M_Mngm_pause   0x0010cc    program     extern D:\Vl_prj\Solid_fuel_boiler(rev 2_0)\Software\src\Module_management\module_management.c
 M_Mngm_set_burning_state   0x000d3c    program     extern D:\Vl_prj\Solid_fuel_boiler(rev 2_0)\Software\src\Module_management\module_management.c
M_Mngm_set_saved_temperature_water   0x000d16    program     extern D:\Vl_prj\Solid_fuel_boiler(rev 2_0)\Software\src\Module_management\module_management.c
           M_Mngm_waiting   0x000f26    program     extern D:\Vl_prj\Solid_fuel_boiler(rev 2_0)\Software\src\Module_management\module_management.c
              M_Motor_Run   0x000448    program     extern D:\Vl_prj\Solid_fuel_boiler(rev 2_0)\Software\src\Module_motor\module_motor.c
    M_Motor_Timer2_change   0x0008be    program     extern D:\Vl_prj\Solid_fuel_boiler(rev 2_0)\Software\src\Module_motor\module_motor.c
            M_Motor_accel   0x0008cc    program     extern D:\Vl_prj\Solid_fuel_boiler(rev 2_0)\Software\src\Module_motor\module_motor.c
   M_Motor_check_false_LS   0x00011c    program     extern D:\Vl_prj\Solid_fuel_boiler(rev 2_0)\Software\src\Module_motor\module_motor.c
M_Motor_check_ls_after_begin_start   0x00008c    program     extern D:\Vl_prj\Solid_fuel_boiler(rev 2_0)\Software\src\Module_motor\module_motor.c
      M_Motor_check_motor   0x0003e0    program     extern D:\Vl_prj\Solid_fuel_boiler(rev 2_0)\Software\src\Module_motor\module_motor.c
M_Motor_clear_accel_state   0x0007dc    program     extern D:\Vl_prj\Solid_fuel_boiler(rev 2_0)\Software\src\Module_motor\module_motor.c
M_Motor_clear_false_state_LS   0x000104    program     extern D:\Vl_prj\Solid_fuel_boiler(rev 2_0)\Software\src\Module_motor\module_motor.c
 M_Motor_clear_parameters   0x00007c    program     extern D:\Vl_prj\Solid_fuel_boiler(rev 2_0)\Software\src\Module_motor\module_motor.c
M_Motor_clear_struct_failure_motor   0x000198    program     extern D:\Vl_prj\Solid_fuel_boiler(rev 2_0)\Software\src\Module_motor\module_motor.c
 M_Motor_get_ctrl_shatter   0x000178    program     extern D:\Vl_prj\Solid_fuel_boiler(rev 2_0)\Software\src\Module_motor\module_motor.c
    M_Motor_get_direction   0x00014e    program     extern D:\Vl_prj\Solid_fuel_boiler(rev 2_0)\Software\src\Module_motor\module_motor.c
M_Motor_get_false_state_LS   0x000134    program     extern D:\Vl_prj\Solid_fuel_boiler(rev 2_0)\Software\src\Module_motor\module_motor.c
   M_Motor_get_prev_state   0x0001e4    program     extern D:\Vl_prj\Solid_fuel_boiler(rev 2_0)\Software\src\Module_motor\module_motor.c
M_Motor_get_ptr_to_motor_pins   0x0003d6    program     extern D:\Vl_prj\Solid_fuel_boiler(rev 2_0)\Software\src\Module_motor\module_motor.c
        M_Motor_get_state   0x000166    program     extern D:\Vl_prj\Solid_fuel_boiler(rev 2_0)\Software\src\Module_motor\module_motor.c
M_Motor_get_state_failure   0x00017e    program     extern D:\Vl_prj\Solid_fuel_boiler(rev 2_0)\Software\src\Module_motor\module_motor.c
         M_Motor_get_work   0x000160    program     extern D:\Vl_prj\Solid_fuel_boiler(rev 2_0)\Software\src\Module_motor\module_motor.c
         M_Motor_is_brake   0x000800    program     extern D:\Vl_prj\Solid_fuel_boiler(rev 2_0)\Software\src\Module_motor\module_motor.c
       M_Motor_is_stopped   0x0008a4    program     extern D:\Vl_prj\Solid_fuel_boiler(rev 2_0)\Software\src\Module_motor\module_motor.c
        M_Motor_is_worked   0x0007e6    program     extern D:\Vl_prj\Solid_fuel_boiler(rev 2_0)\Software\src\Module_motor\module_motor.c
           M_Motor_rotate   0x0001ea    program     extern D:\Vl_prj\Solid_fuel_boiler(rev 2_0)\Software\src\Module_motor\module_motor.c
 M_Motor_set_ctrl_shatter   0x00016c    program     extern D:\Vl_prj\Solid_fuel_boiler(rev 2_0)\Software\src\Module_motor\module_motor.c
        M_Motor_set_state   0x000142    program     extern D:\Vl_prj\Solid_fuel_boiler(rev 2_0)\Software\src\Module_motor\module_motor.c
         M_Motor_set_work   0x000154    program     extern D:\Vl_prj\Solid_fuel_boiler(rev 2_0)\Software\src\Module_motor\module_motor.c
M_Motor_software_PWM_interrrupt   0x0009de    program     extern D:\Vl_prj\Solid_fuel_boiler(rev 2_0)\Software\src\Module_motor\module_motor.c
              M_Sound_run   0x002ed6    program     extern D:\Vl_prj\Solid_fuel_boiler(rev 2_0)\Software\src\Module_sound\module_sound.c
M_Sound_set_button_submergence   0x002ec0    program     extern D:\Vl_prj\Solid_fuel_boiler(rev 2_0)\Software\src\Module_sound\module_sound.c
         M_fan_check_220V   0x002cc0    program     extern D:\Vl_prj\Solid_fuel_boiler(rev 2_0)\Software\src\Module_fan\module_fan.c
     M_fan_clear_timeouts   0x002cca    program     extern D:\Vl_prj\Solid_fuel_boiler(rev 2_0)\Software\src\Module_fan\module_fan.c
       M_fan_get_ctrl_fan   0x002cb4    program     extern D:\Vl_prj\Solid_fuel_boiler(rev 2_0)\Software\src\Module_fan\module_fan.c
        M_fan_get_is_220V   0x002cba    program     extern D:\Vl_prj\Solid_fuel_boiler(rev 2_0)\Software\src\Module_fan\module_fan.c
                M_fan_run   0x002cda    program     extern D:\Vl_prj\Solid_fuel_boiler(rev 2_0)\Software\src\Module_fan\module_fan.c
       M_fan_set_ctrl_fan   0x002cac    program     extern D:\Vl_prj\Solid_fuel_boiler(rev 2_0)\Software\src\Module_fan\module_fan.c
      M_fan_set_level_fan   0x002ca4    program     extern D:\Vl_prj\Solid_fuel_boiler(rev 2_0)\Software\src\Module_fan\module_fan.c
M_fan_time_accum_zero_cross   0x000006    program     extern D:\Vl_prj\Solid_fuel_boiler(rev 2_0)\Software\src\Module_fan\module_fan.c
M_motor_forming_direction_question_LS   0x0000e0    program     extern D:\Vl_prj\Solid_fuel_boiler(rev 2_0)\Software\src\Module_motor\module_motor.c
   Menu_Get_Num_Page_Menu   0x001ada    program     extern D:\Vl_prj\Solid_fuel_boiler(rev 2_0)\Software\src\Menu\menu.c
         Menu_Key_handler   0x001bb0    program     extern D:\Vl_prj\Solid_fuel_boiler(rev 2_0)\Software\src\Menu\menu.c
           Menu_dec_param   0x001aec    program     extern D:\Vl_prj\Solid_fuel_boiler(rev 2_0)\Software\src\Menu\menu.c
   Menu_get_manual_supply   0x001ace    program     extern D:\Vl_prj\Solid_fuel_boiler(rev 2_0)\Software\src\Menu\menu.c
Menu_get_temper_water_or_gas   0x001ad4    program     extern D:\Vl_prj\Solid_fuel_boiler(rev 2_0)\Software\src\Menu\menu.c
           Menu_inc_param   0x001ae0    program     extern D:\Vl_prj\Solid_fuel_boiler(rev 2_0)\Software\src\Menu\menu.c
         Menu_item_change   0x001afa    program     extern D:\Vl_prj\Solid_fuel_boiler(rev 2_0)\Software\src\Menu\menu.c
    Menu_items_thresholds   0x0030c2    program     extern D:\Vl_prj\Solid_fuel_boiler(rev 2_0)\Software\src\Menu\menu.c
                    OS_DI   0x002724    program     extern D:\Vl_prj\Solid_fuel_boiler(rev 2_0)\Software\src\OSA\port\pic18\osa_pic18_mplabc.c
                  OS_Init   0x00276a    program     extern D:\Vl_prj\Solid_fuel_boiler(rev 2_0)\Software\src\OSA\kernel\system\osa_system.c
                 OS_Timer   0x002780    program     extern D:\Vl_prj\Solid_fuel_boiler(rev 2_0)\Software\src\OSA\kernel\system\osa_system.c
       Read_buffer_EEPROM   0x002e32    program     extern D:\Vl_prj\Solid_fuel_boiler(rev 2_0)\Software\src\EEPROMmemory\eeprom.c
                SCHED_END   0x002654    program     static                          
              SPI_Wr_Byte   0x001442    program     extern D:\Vl_prj\Solid_fuel_boiler(rev 2_0)\Software\src\Module_indication\module_indication.c
       Task_Analog_Inputs   0x0032f2    program     extern D:\Vl_prj\Solid_fuel_boiler(rev 2_0)\Software\src\Task_analog_inputs\task_analog_inputs.c
        Task_Logic_Inputs   0x0032da    program     extern D:\Vl_prj\Solid_fuel_boiler(rev 2_0)\Software\src\Task_logic_inputs\task_logic_inputs.c
          Task_Management   0x0032c2    program     extern D:\Vl_prj\Solid_fuel_boiler(rev 2_0)\Software\src\Task_management\task_management.c
              Task_Motors   0x0032aa    program     extern D:\Vl_prj\Solid_fuel_boiler(rev 2_0)\Software\src\Task_motors\task_motors.c
                Task_Outs   0x00322e    program     extern D:\Vl_prj\Solid_fuel_boiler(rev 2_0)\Software\src\Task_outs\task_outs.c
              _2jContinue   0x0031be    program     static E:\3.46\pic18-lt\cxx-framework\src\traditional\stdclib\memset.asm
                   _3jEnd   0x0031c8    program     static E:\3.46\pic18-lt\cxx-framework\src\traditional\stdclib\memset.asm
           _OS_CheckEvent   0x00273e    program     extern D:\Vl_prj\Solid_fuel_boiler(rev 2_0)\Software\src\OSA\port\pic18\osa_pic18_mplabc.c
_OS_ClrReadySetClrCanContinue   0x0026a8    program     extern D:\Vl_prj\Solid_fuel_boiler(rev 2_0)\Software\src\OSA\port\pic18\osa_pic18_mplabc.c
        _OS_EnterWaitMode   0x002698    program     extern D:\Vl_prj\Solid_fuel_boiler(rev 2_0)\Software\src\OSA\port\pic18\osa_pic18_mplabc.c
      _OS_EnterWaitModeTO   0x0026a0    program     extern D:\Vl_prj\Solid_fuel_boiler(rev 2_0)\Software\src\OSA\port\pic18\osa_pic18_mplabc.c
            _OS_InitDelay   0x0026d8    program     extern D:\Vl_prj\Solid_fuel_boiler(rev 2_0)\Software\src\OSA\port\pic18\osa_pic18_mplabc.c
           _OS_JumpToTask   0x00265a    program     extern D:\Vl_prj\Solid_fuel_boiler(rev 2_0)\Software\src\OSA\port\pic18\osa_pic18_mplabc.c
                   _OS_RI   0x002730    program     extern D:\Vl_prj\Solid_fuel_boiler(rev 2_0)\Software\src\OSA\port\pic18\osa_pic18_mplabc.c
         _OS_ReturnNoSave   0x002694    program     extern D:\Vl_prj\Solid_fuel_boiler(rev 2_0)\Software\src\OSA\port\pic18\osa_pic18_mplabc.c
           _OS_ReturnSave   0x00267c    program     extern D:\Vl_prj\Solid_fuel_boiler(rev 2_0)\Software\src\OSA\port\pic18\osa_pic18_mplabc.c
       _OS_SCHED_CONTINUE   0x002620    program     static                          
            _OS_SCHED_RUN   0x0025de    program     static                          
     _OS_SET_FSR_CUR_TASK   0x0026c8    program     extern D:\Vl_prj\Solid_fuel_boiler(rev 2_0)\Software\src\OSA\port\pic18\osa_pic18_mplabc.c
          _OS_Task_Create   0x0027ac    program     extern D:\Vl_prj\Solid_fuel_boiler(rev 2_0)\Software\src\OSA\kernel\system\osa_tasks.c
                 _RI_EXIT   0x00273c    program     static                          
  __OS_SET_FSR_CUR_TASK_W   0x0026d0    program     extern D:\Vl_prj\Solid_fuel_boiler(rev 2_0)\Software\src\OSA\port\pic18\osa_pic18_mplabc.c
           ___do_lbl00007   0x002620    program     static                          
           ___do_lbl00008   0x00262c    program     static                          
           ___do_lbl00021   0x00259e    program     static                          
         ___else_lbl00010   0x0025b2    program     static                          
         ___else_lbl00019   0x002752    program     static                          
          ___for_lbl00001   0x00324a    program     static                          
          ___for_lbl00001   0x0032be    program     static                          
          ___for_lbl00001   0x0032d6    program     static                          
          ___for_lbl00001   0x0024f8    program     static                          
          ___for_lbl00001   0x0032ee    program     static                          
          ___for_lbl00001   0x003306    program     static                          
          ___for_lbl00002   0x0032f0    program     static                          
          ___for_lbl00002   0x00324c    program     static                          
          ___for_lbl00002   0x0032c0    program     static                          
          ___for_lbl00002   0x0032d8    program     static                          
          ___for_lbl00002   0x003308    program     static                          
          ___for_lbl00002   0x00250c    program     static                          
          ___for_lbl00003   0x0032c2    program     static                          
          ___for_lbl00003   0x0024d2    program     static                          
          ___for_lbl00003   0x0032aa    program     static                          
          ___for_lbl00003   0x0032f2    program     static                          
          ___for_lbl00003   0x00322e    program     static                          
          ___for_lbl00003   0x0032da    program     static                          
          ___for_lbl00005   0x002656    program     static                          
          ___for_lbl00006   0x002658    program     static                          
          ___for_lbl00025   0x00258e    program     static                          
           ___if_lbl00001   0x00266a    program     static                          
           ___if_lbl00009   0x0025ba    program     static                          
           ___if_lbl00012   0x0025cc    program     static                          
           ___if_lbl00013   0x0025da    program     static                          
           ___if_lbl00014   0x0025f0    program     static                          
           ___if_lbl00015   0x0025f4    program     static                          
           ___if_lbl00016   0x0025f8    program     static                          
           ___if_lbl00017   0x00274e    program     static                          
           ___if_lbl00018   0x002606    program     static                          
           ___if_lbl00018   0x002754    program     static                          
           ___if_lbl00019   0x002620    program     static                          
           ___if_lbl00020   0x002620    program     static                          
           ___if_lbl00021   0x002766    program     static                          
           ___if_lbl00023   0x002654    program     static                          
           ___if_lbl00024   0x002654    program     static                          
       ___return_lbl00000   0x00250c    program     static                          
       ___return_lbl00000   0x00000c    program     static                          
       ___return_lbl00000   0x00324c    program     static                          
       ___return_lbl00000   0x0032c0    program     static                          
       ___return_lbl00000   0x0032d8    program     static                          
       ___return_lbl00000   0x000004    program     static                          
       ___return_lbl00000   0x0032f0    program     static                          
       ___return_lbl00000   0x00322c    program     static                          
       ___return_lbl00000   0x00267a    program     static                          
       ___return_lbl00000   0x003308    program     static                          
       ___return_lbl00001   0x0032a8    program     static                          
       ___return_lbl00002   0x003026    program     static                          
       ___return_lbl00002   0x002692    program     static                          
       ___return_lbl00003   0x002696    program     static                          
       ___return_lbl00004   0x002658    program     static                          
       ___return_lbl00004   0x00269e    program     static                          
       ___return_lbl00005   0x0026a6    program     static                          
       ___return_lbl00009   0x0026ce    program     static                          
       ___return_lbl00010   0x0026d6    program     static                          
       ___return_lbl00014   0x00272e    program     static                          
       ___return_lbl00015   0x00273c    program     static                          
       ___return_lbl00016   0x002768    program     static                          
       ___return_lbl00023   0x0027aa    program     static                          
               __config_0   0x01fff8    program     static D:\Vl_prj\Solid_fuel_boiler(rev 2_0)\Software\src\Main\main.c
               __config_1   0x01fff9    program     static D:\Vl_prj\Solid_fuel_boiler(rev 2_0)\Software\src\Main\main.c
               __config_2   0x01fffa    program     static D:\Vl_prj\Solid_fuel_boiler(rev 2_0)\Software\src\Main\main.c
               __config_3   0x01fffb    program     static D:\Vl_prj\Solid_fuel_boiler(rev 2_0)\Software\src\Main\main.c
               __config_4   0x01fffc    program     static D:\Vl_prj\Solid_fuel_boiler(rev 2_0)\Software\src\Main\main.c
               __config_5   0x01fffd    program     static D:\Vl_prj\Solid_fuel_boiler(rev 2_0)\Software\src\Main\main.c
                   __init   0x00330a    program     extern E:\3.46\pic18-lt\cxx-framework\src\traditional\stdclib\__init.c
                   __pa_0   0x002e80    program     static D:\Vl_prj\Solid_fuel_boiler(rev 2_0)\Software\src\EEPROMmemory\eeprom.c
                   __pa_0   0x000a3c    program     static D:\Vl_prj\Solid_fuel_boiler(rev 2_0)\Software\src\Module_motor\module_motor.c
                   __pa_0   0x002c90    program     static D:\Vl_prj\Solid_fuel_boiler(rev 2_0)\Software\src\Interrupts\interrupts.c
                   __pa_0   0x002824    program     static D:\Vl_prj\Solid_fuel_boiler(rev 2_0)\Software\src\OSA\kernel\system\osa_tasks.c
                   __pa_0   0x0030ac    program     static D:\Vl_prj\Solid_fuel_boiler(rev 2_0)\Software\src\Drivers\i2c.c
                   __pa_0   0x002dca    program     static D:\Vl_prj\Solid_fuel_boiler(rev 2_0)\Software\src\Module_fan\module_fan.c
                   __pa_0   0x00235c    program     static D:\Vl_prj\Solid_fuel_boiler(rev 2_0)\Software\src\Module_analog_inputs\module_analog_inputs.c
                   __pa_0   0x0019b8    program     static D:\Vl_prj\Solid_fuel_boiler(rev 2_0)\Software\src\Module_indication\module_indication.c
                   __pa_0   0x0029bc    program     static D:\Vl_prj\Solid_fuel_boiler(rev 2_0)\Software\src\Module_logic_inputs\module_logic_inputs.c
                   __pa_0   0x001f7e    program     static D:\Vl_prj\Solid_fuel_boiler(rev 2_0)\Software\src\Menu\menu.c
                   __pa_0   0x0012a6    program     static D:\Vl_prj\Solid_fuel_boiler(rev 2_0)\Software\src\Module_management\module_management.c
                   __pa_1   0x0030ba    program     static D:\Vl_prj\Solid_fuel_boiler(rev 2_0)\Software\src\Drivers\i2c.c
                   __pa_1   0x002dd6    program     static D:\Vl_prj\Solid_fuel_boiler(rev 2_0)\Software\src\Module_fan\module_fan.c
                   __pa_1   0x002ea2    program     static D:\Vl_prj\Solid_fuel_boiler(rev 2_0)\Software\src\EEPROMmemory\eeprom.c
                   __pa_1   0x002374    program     static D:\Vl_prj\Solid_fuel_boiler(rev 2_0)\Software\src\Module_analog_inputs\module_analog_inputs.c
                   __pa_1   0x0019c8    program     static D:\Vl_prj\Solid_fuel_boiler(rev 2_0)\Software\src\Module_indication\module_indication.c
                   __pa_1   0x00282e    program     static D:\Vl_prj\Solid_fuel_boiler(rev 2_0)\Software\src\OSA\kernel\system\osa_tasks.c
                   __pa_1   0x000a44    program     static D:\Vl_prj\Solid_fuel_boiler(rev 2_0)\Software\src\Module_motor\module_motor.c
                   __pa_1   0x002c9c    program     static D:\Vl_prj\Solid_fuel_boiler(rev 2_0)\Software\src\Interrupts\interrupts.c
                   __pa_1   0x0029c6    program     static D:\Vl_prj\Solid_fuel_boiler(rev 2_0)\Software\src\Module_logic_inputs\module_logic_inputs.c
                   __pa_1   0x001f8c    program     static D:\Vl_prj\Solid_fuel_boiler(rev 2_0)\Software\src\Menu\menu.c
                   __pa_1   0x0012b8    program     static D:\Vl_prj\Solid_fuel_boiler(rev 2_0)\Software\src\Module_management\module_management.c
                  __pa_10   0x000acc    program     static D:\Vl_prj\Solid_fuel_boiler(rev 2_0)\Software\src\Module_motor\module_motor.c
                  __pa_10   0x002016    program     static D:\Vl_prj\Solid_fuel_boiler(rev 2_0)\Software\src\Menu\menu.c
                  __pa_10   0x001a40    program     static D:\Vl_prj\Solid_fuel_boiler(rev 2_0)\Software\src\Module_indication\module_indication.c
                  __pa_10   0x0023f6    program     static D:\Vl_prj\Solid_fuel_boiler(rev 2_0)\Software\src\Module_analog_inputs\module_analog_inputs.c
                  __pa_10   0x00134a    program     static D:\Vl_prj\Solid_fuel_boiler(rev 2_0)\Software\src\Module_management\module_management.c
                  __pa_11   0x002400    program     static D:\Vl_prj\Solid_fuel_boiler(rev 2_0)\Software\src\Module_analog_inputs\module_analog_inputs.c
                  __pa_11   0x001366    program     static D:\Vl_prj\Solid_fuel_boiler(rev 2_0)\Software\src\Module_management\module_management.c
                  __pa_11   0x001a4c    program     static D:\Vl_prj\Solid_fuel_boiler(rev 2_0)\Software\src\Module_indication\module_indication.c
                  __pa_11   0x002024    program     static D:\Vl_prj\Solid_fuel_boiler(rev 2_0)\Software\src\Menu\menu.c
                  __pa_11   0x000ad4    program     static D:\Vl_prj\Solid_fuel_boiler(rev 2_0)\Software\src\Module_motor\module_motor.c
                  __pa_12   0x002406    program     static D:\Vl_prj\Solid_fuel_boiler(rev 2_0)\Software\src\Module_analog_inputs\module_analog_inputs.c
                  __pa_12   0x002032    program     static D:\Vl_prj\Solid_fuel_boiler(rev 2_0)\Software\src\Menu\menu.c
                  __pa_12   0x001a5c    program     static D:\Vl_prj\Solid_fuel_boiler(rev 2_0)\Software\src\Module_indication\module_indication.c
                  __pa_12   0x001372    program     static D:\Vl_prj\Solid_fuel_boiler(rev 2_0)\Software\src\Module_management\module_management.c
                  __pa_12   0x000af6    program     static D:\Vl_prj\Solid_fuel_boiler(rev 2_0)\Software\src\Module_motor\module_motor.c
                  __pa_13   0x00203e    program     static D:\Vl_prj\Solid_fuel_boiler(rev 2_0)\Software\src\Menu\menu.c
                  __pa_13   0x00137c    program     static D:\Vl_prj\Solid_fuel_boiler(rev 2_0)\Software\src\Module_management\module_management.c
                  __pa_13   0x000b00    program     static D:\Vl_prj\Solid_fuel_boiler(rev 2_0)\Software\src\Module_motor\module_motor.c
                  __pa_13   0x002414    program     static D:\Vl_prj\Solid_fuel_boiler(rev 2_0)\Software\src\Module_analog_inputs\module_analog_inputs.c
                  __pa_13   0x001a6a    program     static D:\Vl_prj\Solid_fuel_boiler(rev 2_0)\Software\src\Module_indication\module_indication.c
                  __pa_14   0x002048    program     static D:\Vl_prj\Solid_fuel_boiler(rev 2_0)\Software\src\Menu\menu.c
                  __pa_14   0x00241a    program     static D:\Vl_prj\Solid_fuel_boiler(rev 2_0)\Software\src\Module_analog_inputs\module_analog_inputs.c
                  __pa_14   0x000b1a    program     static D:\Vl_prj\Solid_fuel_boiler(rev 2_0)\Software\src\Module_motor\module_motor.c
                  __pa_14   0x001382    program     static D:\Vl_prj\Solid_fuel_boiler(rev 2_0)\Software\src\Module_management\module_management.c
                  __pa_14   0x001a72    program     static D:\Vl_prj\Solid_fuel_boiler(rev 2_0)\Software\src\Module_indication\module_indication.c
                  __pa_15   0x00242a    program     static D:\Vl_prj\Solid_fuel_boiler(rev 2_0)\Software\src\Module_analog_inputs\module_analog_inputs.c
                  __pa_15   0x002056    program     static D:\Vl_prj\Solid_fuel_boiler(rev 2_0)\Software\src\Menu\menu.c
                  __pa_15   0x001a80    program     static D:\Vl_prj\Solid_fuel_boiler(rev 2_0)\Software\src\Module_indication\module_indication.c
                  __pa_15   0x00138c    program     static D:\Vl_prj\Solid_fuel_boiler(rev 2_0)\Software\src\Module_management\module_management.c
                  __pa_15   0x000b28    program     static D:\Vl_prj\Solid_fuel_boiler(rev 2_0)\Software\src\Module_motor\module_motor.c
                  __pa_16   0x001396    program     static D:\Vl_prj\Solid_fuel_boiler(rev 2_0)\Software\src\Module_management\module_management.c
                  __pa_16   0x001a8a    program     static D:\Vl_prj\Solid_fuel_boiler(rev 2_0)\Software\src\Module_indication\module_indication.c
                  __pa_16   0x000b36    program     static D:\Vl_prj\Solid_fuel_boiler(rev 2_0)\Software\src\Module_motor\module_motor.c
                  __pa_16   0x002436    program     static D:\Vl_prj\Solid_fuel_boiler(rev 2_0)\Software\src\Module_analog_inputs\module_analog_inputs.c
                  __pa_16   0x00205e    program     static D:\Vl_prj\Solid_fuel_boiler(rev 2_0)\Software\src\Menu\menu.c
                  __pa_17   0x00243c    program     static D:\Vl_prj\Solid_fuel_boiler(rev 2_0)\Software\src\Module_analog_inputs\module_analog_inputs.c
                  __pa_17   0x000b40    program     static D:\Vl_prj\Solid_fuel_boiler(rev 2_0)\Software\src\Module_motor\module_motor.c
                  __pa_17   0x001a92    program     static D:\Vl_prj\Solid_fuel_boiler(rev 2_0)\Software\src\Module_indication\module_indication.c
                  __pa_17   0x0013a0    program     static D:\Vl_prj\Solid_fuel_boiler(rev 2_0)\Software\src\Module_management\module_management.c
                  __pa_17   0x002066    program     static D:\Vl_prj\Solid_fuel_boiler(rev 2_0)\Software\src\Menu\menu.c
                  __pa_18   0x002446    program     static D:\Vl_prj\Solid_fuel_boiler(rev 2_0)\Software\src\Module_analog_inputs\module_analog_inputs.c
                  __pa_18   0x0013a8    program     static D:\Vl_prj\Solid_fuel_boiler(rev 2_0)\Software\src\Module_management\module_management.c
                  __pa_18   0x001aa2    program     static D:\Vl_prj\Solid_fuel_boiler(rev 2_0)\Software\src\Module_indication\module_indication.c
                  __pa_18   0x002070    program     static D:\Vl_prj\Solid_fuel_boiler(rev 2_0)\Software\src\Menu\menu.c
                  __pa_18   0x000b48    program     static D:\Vl_prj\Solid_fuel_boiler(rev 2_0)\Software\src\Module_motor\module_motor.c
                  __pa_19   0x002454    program     static D:\Vl_prj\Solid_fuel_boiler(rev 2_0)\Software\src\Module_analog_inputs\module_analog_inputs.c
                  __pa_19   0x0013b2    program     static D:\Vl_prj\Solid_fuel_boiler(rev 2_0)\Software\src\Module_management\module_management.c
                  __pa_19   0x001aaa    program     static D:\Vl_prj\Solid_fuel_boiler(rev 2_0)\Software\src\Module_indication\module_indication.c
                  __pa_19   0x002082    program     static D:\Vl_prj\Solid_fuel_boiler(rev 2_0)\Software\src\Menu\menu.c
                  __pa_19   0x000b50    program     static D:\Vl_prj\Solid_fuel_boiler(rev 2_0)\Software\src\Module_motor\module_motor.c
                   __pa_2   0x0012d2    program     static D:\Vl_prj\Solid_fuel_boiler(rev 2_0)\Software\src\Module_management\module_management.c
                   __pa_2   0x00239e    program     static D:\Vl_prj\Solid_fuel_boiler(rev 2_0)\Software\src\Module_analog_inputs\module_analog_inputs.c
                   __pa_2   0x0019d4    program     static D:\Vl_prj\Solid_fuel_boiler(rev 2_0)\Software\src\Module_indication\module_indication.c
                   __pa_2   0x001f96    program     static D:\Vl_prj\Solid_fuel_boiler(rev 2_0)\Software\src\Menu\menu.c
                   __pa_2   0x002eac    program     static D:\Vl_prj\Solid_fuel_boiler(rev 2_0)\Software\src\EEPROMmemory\eeprom.c
                   __pa_2   0x0029d6    program     static D:\Vl_prj\Solid_fuel_boiler(rev 2_0)\Software\src\Module_logic_inputs\module_logic_inputs.c
                   __pa_2   0x000a52    program     static D:\Vl_prj\Solid_fuel_boiler(rev 2_0)\Software\src\Module_motor\module_motor.c
                  __pa_20   0x00208a    program     static D:\Vl_prj\Solid_fuel_boiler(rev 2_0)\Software\src\Menu\menu.c
                  __pa_20   0x001ab2    program     static D:\Vl_prj\Solid_fuel_boiler(rev 2_0)\Software\src\Module_indication\module_indication.c
                  __pa_20   0x000b62    program     static D:\Vl_prj\Solid_fuel_boiler(rev 2_0)\Software\src\Module_motor\module_motor.c
                  __pa_20   0x002460    program     static D:\Vl_prj\Solid_fuel_boiler(rev 2_0)\Software\src\Module_analog_inputs\module_analog_inputs.c
                  __pa_20   0x0013c6    program     static D:\Vl_prj\Solid_fuel_boiler(rev 2_0)\Software\src\Module_management\module_management.c
                  __pa_21   0x000b70    program     static D:\Vl_prj\Solid_fuel_boiler(rev 2_0)\Software\src\Module_motor\module_motor.c
                  __pa_21   0x0013d6    program     static D:\Vl_prj\Solid_fuel_boiler(rev 2_0)\Software\src\Module_management\module_management.c
                  __pa_21   0x001ac2    program     static D:\Vl_prj\Solid_fuel_boiler(rev 2_0)\Software\src\Module_indication\module_indication.c
                  __pa_21   0x002098    program     static D:\Vl_prj\Solid_fuel_boiler(rev 2_0)\Software\src\Menu\menu.c
                  __pa_22   0x000b76    program     static D:\Vl_prj\Solid_fuel_boiler(rev 2_0)\Software\src\Module_motor\module_motor.c
                  __pa_22   0x001ac8    program     static D:\Vl_prj\Solid_fuel_boiler(rev 2_0)\Software\src\Module_indication\module_indication.c
                  __pa_22   0x0020a6    program     static D:\Vl_prj\Solid_fuel_boiler(rev 2_0)\Software\src\Menu\menu.c
                  __pa_22   0x0013e0    program     static D:\Vl_prj\Solid_fuel_boiler(rev 2_0)\Software\src\Module_management\module_management.c
                  __pa_23   0x000b82    program     static D:\Vl_prj\Solid_fuel_boiler(rev 2_0)\Software\src\Module_motor\module_motor.c
                  __pa_23   0x0013ea    program     static D:\Vl_prj\Solid_fuel_boiler(rev 2_0)\Software\src\Module_management\module_management.c
                  __pa_23   0x0020b4    program     static D:\Vl_prj\Solid_fuel_boiler(rev 2_0)\Software\src\Menu\menu.c
                  __pa_24   0x000b8a    program     static D:\Vl_prj\Solid_fuel_boiler(rev 2_0)\Software\src\Module_motor\module_motor.c
                  __pa_24   0x0013f4    program     static D:\Vl_prj\Solid_fuel_boiler(rev 2_0)\Software\src\Module_management\module_management.c
                  __pa_24   0x0020c2    program     static D:\Vl_prj\Solid_fuel_boiler(rev 2_0)\Software\src\Menu\menu.c
                  __pa_25   0x0013fa    program     static D:\Vl_prj\Solid_fuel_boiler(rev 2_0)\Software\src\Module_management\module_management.c
                  __pa_25   0x0020cc    program     static D:\Vl_prj\Solid_fuel_boiler(rev 2_0)\Software\src\Menu\menu.c
                  __pa_25   0x000b94    program     static D:\Vl_prj\Solid_fuel_boiler(rev 2_0)\Software\src\Module_motor\module_motor.c
                  __pa_26   0x0020d4    program     static D:\Vl_prj\Solid_fuel_boiler(rev 2_0)\Software\src\Menu\menu.c
                  __pa_26   0x000b9e    program     static D:\Vl_prj\Solid_fuel_boiler(rev 2_0)\Software\src\Module_motor\module_motor.c
                  __pa_26   0x001402    program     static D:\Vl_prj\Solid_fuel_boiler(rev 2_0)\Software\src\Module_management\module_management.c
                  __pa_27   0x0020dc    program     static D:\Vl_prj\Solid_fuel_boiler(rev 2_0)\Software\src\Menu\menu.c
                  __pa_27   0x000bae    program     static D:\Vl_prj\Solid_fuel_boiler(rev 2_0)\Software\src\Module_motor\module_motor.c
                  __pa_27   0x00140a    program     static D:\Vl_prj\Solid_fuel_boiler(rev 2_0)\Software\src\Module_management\module_management.c
                  __pa_28   0x0020e6    program     static D:\Vl_prj\Solid_fuel_boiler(rev 2_0)\Software\src\Menu\menu.c
                  __pa_28   0x000bb8    program     static D:\Vl_prj\Solid_fuel_boiler(rev 2_0)\Software\src\Module_motor\module_motor.c
                  __pa_29   0x000bc6    program     static D:\Vl_prj\Solid_fuel_boiler(rev 2_0)\Software\src\Module_motor\module_motor.c
                   __pa_3   0x001f9c    program     static D:\Vl_prj\Solid_fuel_boiler(rev 2_0)\Software\src\Menu\menu.c
                   __pa_3   0x0023b4    program     static D:\Vl_prj\Solid_fuel_boiler(rev 2_0)\Software\src\Module_analog_inputs\module_analog_inputs.c
                   __pa_3   0x002eb6    program     static D:\Vl_prj\Solid_fuel_boiler(rev 2_0)\Software\src\EEPROMmemory\eeprom.c
                   __pa_3   0x000a64    program     static D:\Vl_prj\Solid_fuel_boiler(rev 2_0)\Software\src\Module_motor\module_motor.c
                   __pa_3   0x0029de    program     static D:\Vl_prj\Solid_fuel_boiler(rev 2_0)\Software\src\Module_logic_inputs\module_logic_inputs.c
                   __pa_3   0x0012dc    program     static D:\Vl_prj\Solid_fuel_boiler(rev 2_0)\Software\src\Module_management\module_management.c
                   __pa_3   0x0019dc    program     static D:\Vl_prj\Solid_fuel_boiler(rev 2_0)\Software\src\Module_indication\module_indication.c
                  __pa_30   0x000bd2    program     static D:\Vl_prj\Solid_fuel_boiler(rev 2_0)\Software\src\Module_motor\module_motor.c
                  __pa_31   0x000be0    program     static D:\Vl_prj\Solid_fuel_boiler(rev 2_0)\Software\src\Module_motor\module_motor.c
                  __pa_32   0x000be8    program     static D:\Vl_prj\Solid_fuel_boiler(rev 2_0)\Software\src\Module_motor\module_motor.c
                  __pa_33   0x000bf2    program     static D:\Vl_prj\Solid_fuel_boiler(rev 2_0)\Software\src\Module_motor\module_motor.c
                  __pa_34   0x000bfc    program     static D:\Vl_prj\Solid_fuel_boiler(rev 2_0)\Software\src\Module_motor\module_motor.c
                  __pa_35   0x000c06    program     static D:\Vl_prj\Solid_fuel_boiler(rev 2_0)\Software\src\Module_motor\module_motor.c
                  __pa_36   0x000c0e    program     static D:\Vl_prj\Solid_fuel_boiler(rev 2_0)\Software\src\Module_motor\module_motor.c
                  __pa_37   0x000c18    program     static D:\Vl_prj\Solid_fuel_boiler(rev 2_0)\Software\src\Module_motor\module_motor.c
                  __pa_38   0x000c22    program     static D:\Vl_prj\Solid_fuel_boiler(rev 2_0)\Software\src\Module_motor\module_motor.c
                  __pa_39   0x000c28    program     static D:\Vl_prj\Solid_fuel_boiler(rev 2_0)\Software\src\Module_motor\module_motor.c
                   __pa_4   0x000a7a    program     static D:\Vl_prj\Solid_fuel_boiler(rev 2_0)\Software\src\Module_motor\module_motor.c
                   __pa_4   0x001fae    program     static D:\Vl_prj\Solid_fuel_boiler(rev 2_0)\Software\src\Menu\menu.c
                   __pa_4   0x0023c8    program     static D:\Vl_prj\Solid_fuel_boiler(rev 2_0)\Software\src\Module_analog_inputs\module_analog_inputs.c
                   __pa_4   0x0012e6    program     static D:\Vl_prj\Solid_fuel_boiler(rev 2_0)\Software\src\Module_management\module_management.c
                   __pa_4   0x0019e6    program     static D:\Vl_prj\Solid_fuel_boiler(rev 2_0)\Software\src\Module_indication\module_indication.c
                  __pa_40   0x000c32    program     static D:\Vl_prj\Solid_fuel_boiler(rev 2_0)\Software\src\Module_motor\module_motor.c
                  __pa_41   0x000c38    program     static D:\Vl_prj\Solid_fuel_boiler(rev 2_0)\Software\src\Module_motor\module_motor.c
                  __pa_42   0x000c40    program     static D:\Vl_prj\Solid_fuel_boiler(rev 2_0)\Software\src\Module_motor\module_motor.c
                  __pa_43   0x000c48    program     static D:\Vl_prj\Solid_fuel_boiler(rev 2_0)\Software\src\Module_motor\module_motor.c
                  __pa_44   0x000c52    program     static D:\Vl_prj\Solid_fuel_boiler(rev 2_0)\Software\src\Module_motor\module_motor.c
                  __pa_45   0x000c5a    program     static D:\Vl_prj\Solid_fuel_boiler(rev 2_0)\Software\src\Module_motor\module_motor.c
                  __pa_46   0x000c64    program     static D:\Vl_prj\Solid_fuel_boiler(rev 2_0)\Software\src\Module_motor\module_motor.c
                  __pa_47   0x000c6e    program     static D:\Vl_prj\Solid_fuel_boiler(rev 2_0)\Software\src\Module_motor\module_motor.c
                  __pa_48   0x000c78    program     static D:\Vl_prj\Solid_fuel_boiler(rev 2_0)\Software\src\Module_motor\module_motor.c
                  __pa_49   0x000c7e    program     static D:\Vl_prj\Solid_fuel_boiler(rev 2_0)\Software\src\Module_motor\module_motor.c
                   __pa_5   0x0019f0    program     static D:\Vl_prj\Solid_fuel_boiler(rev 2_0)\Software\src\Module_indication\module_indication.c
                   __pa_5   0x000a8a    program     static D:\Vl_prj\Solid_fuel_boiler(rev 2_0)\Software\src\Module_motor\module_motor.c
                   __pa_5   0x001300    program     static D:\Vl_prj\Solid_fuel_boiler(rev 2_0)\Software\src\Module_management\module_management.c
                   __pa_5   0x0023cc    program     static D:\Vl_prj\Solid_fuel_boiler(rev 2_0)\Software\src\Module_analog_inputs\module_analog_inputs.c
                   __pa_5   0x001fd4    program     static D:\Vl_prj\Solid_fuel_boiler(rev 2_0)\Software\src\Menu\menu.c
                  __pa_50   0x000c86    program     static D:\Vl_prj\Solid_fuel_boiler(rev 2_0)\Software\src\Module_motor\module_motor.c
                  __pa_51   0x000c94    program     static D:\Vl_prj\Solid_fuel_boiler(rev 2_0)\Software\src\Module_motor\module_motor.c
                  __pa_52   0x000ca2    program     static D:\Vl_prj\Solid_fuel_boiler(rev 2_0)\Software\src\Module_motor\module_motor.c
                  __pa_53   0x000caa    program     static D:\Vl_prj\Solid_fuel_boiler(rev 2_0)\Software\src\Module_motor\module_motor.c
                   __pa_6   0x001308    program     static D:\Vl_prj\Solid_fuel_boiler(rev 2_0)\Software\src\Module_management\module_management.c
                   __pa_6   0x0023d6    program     static D:\Vl_prj\Solid_fuel_boiler(rev 2_0)\Software\src\Module_analog_inputs\module_analog_inputs.c
                   __pa_6   0x001fde    program     static D:\Vl_prj\Solid_fuel_boiler(rev 2_0)\Software\src\Menu\menu.c
                   __pa_6   0x001a12    program     static D:\Vl_prj\Solid_fuel_boiler(rev 2_0)\Software\src\Module_indication\module_indication.c
                   __pa_6   0x000a94    program     static D:\Vl_prj\Solid_fuel_boiler(rev 2_0)\Software\src\Module_motor\module_motor.c
                   __pa_7   0x001fe6    program     static D:\Vl_prj\Solid_fuel_boiler(rev 2_0)\Software\src\Menu\menu.c
                   __pa_7   0x0023de    program     static D:\Vl_prj\Solid_fuel_boiler(rev 2_0)\Software\src\Module_analog_inputs\module_analog_inputs.c
                   __pa_7   0x000a9c    program     static D:\Vl_prj\Solid_fuel_boiler(rev 2_0)\Software\src\Module_motor\module_motor.c
                   __pa_7   0x001310    program     static D:\Vl_prj\Solid_fuel_boiler(rev 2_0)\Software\src\Module_management\module_management.c
                   __pa_7   0x001a1a    program     static D:\Vl_prj\Solid_fuel_boiler(rev 2_0)\Software\src\Module_indication\module_indication.c
                   __pa_8   0x001ff0    program     static D:\Vl_prj\Solid_fuel_boiler(rev 2_0)\Software\src\Menu\menu.c
                   __pa_8   0x0023ea    program     static D:\Vl_prj\Solid_fuel_boiler(rev 2_0)\Software\src\Module_analog_inputs\module_analog_inputs.c
                   __pa_8   0x00131a    program     static D:\Vl_prj\Solid_fuel_boiler(rev 2_0)\Software\src\Module_management\module_management.c
                   __pa_8   0x001a24    program     static D:\Vl_prj\Solid_fuel_boiler(rev 2_0)\Software\src\Module_indication\module_indication.c
                   __pa_8   0x000aa8    program     static D:\Vl_prj\Solid_fuel_boiler(rev 2_0)\Software\src\Module_motor\module_motor.c
                   __pa_9   0x002006    program     static D:\Vl_prj\Solid_fuel_boiler(rev 2_0)\Software\src\Menu\menu.c
                   __pa_9   0x0023ee    program     static D:\Vl_prj\Solid_fuel_boiler(rev 2_0)\Software\src\Module_analog_inputs\module_analog_inputs.c
                   __pa_9   0x001338    program     static D:\Vl_prj\Solid_fuel_boiler(rev 2_0)\Software\src\Module_management\module_management.c
                   __pa_9   0x001a32    program     static D:\Vl_prj\Solid_fuel_boiler(rev 2_0)\Software\src\Module_indication\module_indication.c
                   __pa_9   0x000abc    program     static D:\Vl_prj\Solid_fuel_boiler(rev 2_0)\Software\src\Module_motor\module_motor.c
               __tmplbl_0   0x0024f4    program     static                          
               __tmplbl_0   0x002760    program     static                          
               __tmplbl_1   0x0025ca    program     static                          
               __tmplbl_1   0x00275a    program     static                          
              __tmplbl_12   0x000a94    program     static                          
              __tmplbl_13   0x000a94    program     static                          
              __tmplbl_14   0x000a94    program     static                          
              __tmplbl_15   0x000a94    program     static                          
              __tmplbl_16   0x000a94    program     static                          
              __tmplbl_17   0x000a94    program     static                          
              __tmplbl_18   0x000a94    program     static                          
              __tmplbl_19   0x000a94    program     static                          
               __tmplbl_2   0x0025c4    program     static                          
              __tmplbl_20   0x000a94    program     static                          
               __tmplbl_3   0x002604    program     static                          
               __tmplbl_4   0x0025fe    program     static                          
               __tmplbl_5   0x002652    program     static                          
               __tmplbl_6   0x00264c    program     static                          
            __zero_memory   0x00324e    program     extern E:\3.46\pic18-lt\cxx-framework\src\traditional\proc\p18f87j50.asm
                _do_cinit   0x002f8a    program     extern E:\3.46\pic18-lt\cxx-framework\src\traditional\startup\c018i.c
                   _entry   0x000000    program     extern E:\3.46\pic18-lt\cxx-framework\src\traditional\startup\c018i.c
                 _startup   0x00328e    program     extern E:\3.46\pic18-lt\cxx-framework\src\traditional\startup\c018i.c
                compare_l   0x003264    program     static E:\3.46\pic18-lt\cxx-framework\src\traditional\proc\p18f87j50.asm
                copy_loop   0x002ffc    program     static                          
            copy_one_byte   0x003002    program     static                          
                 decimals   0x003286    program     extern D:\Vl_prj\Solid_fuel_boiler(rev 2_0)\Software\src\Module_indication\module_indication.c
                 delay_ms   0x002dde    program     static D:\Vl_prj\Solid_fuel_boiler(rev 2_0)\Software\src\EEPROMmemory\eeprom.c
                     done   0x003026    program     static                          
             done_copying   0x003010    program     static                          
                  endloop   0x003228    program     static                          
                 i2c_idle   0x00303e    program     extern D:\Vl_prj\Solid_fuel_boiler(rev 2_0)\Software\src\Drivers\i2c.c
                 i2c_init   0x003028    program     extern D:\Vl_prj\Solid_fuel_boiler(rev 2_0)\Software\src\Drivers\i2c.c
           i2c_master_ack   0x00308e    program     extern D:\Vl_prj\Solid_fuel_boiler(rev 2_0)\Software\src\Drivers\i2c.c
                 i2c_read   0x0030a0    program     extern D:\Vl_prj\Solid_fuel_boiler(rev 2_0)\Software\src\Drivers\i2c.c
            i2c_slave_ack   0x003074    program     extern D:\Vl_prj\Solid_fuel_boiler(rev 2_0)\Software\src\Drivers\i2c.c
                i2c_start   0x00304c    program     extern D:\Vl_prj\Solid_fuel_boiler(rev 2_0)\Software\src\Drivers\i2c.c
                 i2c_stop   0x00306c    program     extern D:\Vl_prj\Solid_fuel_boiler(rev 2_0)\Software\src\Drivers\i2c.c
                i2c_write   0x00307e    program     extern D:\Vl_prj\Solid_fuel_boiler(rev 2_0)\Software\src\Drivers\i2c.c
                     jEnd   0x0031d0    program     static E:\3.46\pic18-lt\cxx-framework\src\traditional\stdclib\memset.asm
                    jLoop   0x0031b2    program     static E:\3.46\pic18-lt\cxx-framework\src\traditional\stdclib\memset.asm
                     loop   0x00329e    program     static                          
                     loop   0x00320c    program     static                          
                   loop_h   0x00325c    program     static E:\3.46\pic18-lt\cxx-framework\src\traditional\proc\p18f87j50.asm
                   loop_l   0x003266    program     static E:\3.46\pic18-lt\cxx-framework\src\traditional\proc\p18f87j50.asm
                     main   0x002520    program     extern D:\Vl_prj\Solid_fuel_boiler(rev 2_0)\Software\src\Main\main.c
                   memset   0x00319e    program     extern E:\3.46\pic18-lt\cxx-framework\src\traditional\stdclib\memset.asm
      motor_pins_backward   0x00312c    program     extern D:\Vl_prj\Solid_fuel_boiler(rev 2_0)\Software\src\Module_motor\module_motor.c
 motor_pins_brake_high_sw   0x00313e    program     extern D:\Vl_prj\Solid_fuel_boiler(rev 2_0)\Software\src\Module_motor\module_motor.c
  motor_pins_brake_low_sw   0x003150    program     extern D:\Vl_prj\Solid_fuel_boiler(rev 2_0)\Software\src\Module_motor\module_motor.c
       motor_pins_forward   0x00311a    program     extern D:\Vl_prj\Solid_fuel_boiler(rev 2_0)\Software\src\Module_motor\module_motor.c
             start_config   0x0031d2    program     extern D:\Vl_prj\Solid_fuel_boiler(rev 2_0)\Software\src\EEPROMmemory\eeprom.c
                     test   0x002fa4    program     static                          
               zero_block   0x00325c    program     static E:\3.46\pic18-lt\cxx-framework\src\traditional\proc\p18f87j50.asm
                   ADCON0   0x000fc2       data     extern E:\3.46\pic18-lt\cxx-framework\src\traditional\proc\p18f87j50.asm
               ADCON0bits   0x000fc2       data     extern E:\3.46\pic18-lt\cxx-framework\src\traditional\proc\p18f87j50.asm
                   ADCON1   0x000fc1       data     extern E:\3.46\pic18-lt\cxx-framework\src\traditional\proc\p18f87j50.asm
               ADCON1bits   0x000fc1       data     extern E:\3.46\pic18-lt\cxx-framework\src\traditional\proc\p18f87j50.asm
                    ADRES   0x000fc3       data     extern E:\3.46\pic18-lt\cxx-framework\src\traditional\proc\p18f87j50.asm
                   ADRESH   0x000fc4       data     extern E:\3.46\pic18-lt\cxx-framework\src\traditional\proc\p18f87j50.asm
                   ADRESL   0x000fc3       data     extern E:\3.46\pic18-lt\cxx-framework\src\traditional\proc\p18f87j50.asm
                   ANCON0   0x000fc1       data     extern E:\3.46\pic18-lt\cxx-framework\src\traditional\proc\p18f87j50.asm
               ANCON0bits   0x000fc1       data     extern E:\3.46\pic18-lt\cxx-framework\src\traditional\proc\p18f87j50.asm
                   ANCON1   0x000fc2       data     extern E:\3.46\pic18-lt\cxx-framework\src\traditional\proc\p18f87j50.asm
               ANCON1bits   0x000fc2       data     extern E:\3.46\pic18-lt\cxx-framework\src\traditional\proc\p18f87j50.asm
                  BAUDCON   0x000f7e       data     extern E:\3.46\pic18-lt\cxx-framework\src\traditional\proc\p18f87j50.asm
                 BAUDCON1   0x000f7e       data     extern E:\3.46\pic18-lt\cxx-framework\src\traditional\proc\p18f87j50.asm
             BAUDCON1bits   0x000f7e       data     extern E:\3.46\pic18-lt\cxx-framework\src\traditional\proc\p18f87j50.asm
                 BAUDCON2   0x000f7c       data     extern E:\3.46\pic18-lt\cxx-framework\src\traditional\proc\p18f87j50.asm
             BAUDCON2bits   0x000f7c       data     extern E:\3.46\pic18-lt\cxx-framework\src\traditional\proc\p18f87j50.asm
              BAUDCONbits   0x000f7e       data     extern E:\3.46\pic18-lt\cxx-framework\src\traditional\proc\p18f87j50.asm
                      BSR   0x000fe0       data     extern E:\3.46\pic18-lt\cxx-framework\src\traditional\proc\p18f87j50.asm
                  CCP1CON   0x000fbb       data     extern E:\3.46\pic18-lt\cxx-framework\src\traditional\proc\p18f87j50.asm
              CCP1CONbits   0x000fbb       data     extern E:\3.46\pic18-lt\cxx-framework\src\traditional\proc\p18f87j50.asm
                  CCP2CON   0x000fb6       data     extern E:\3.46\pic18-lt\cxx-framework\src\traditional\proc\p18f87j50.asm
              CCP2CONbits   0x000fb6       data     extern E:\3.46\pic18-lt\cxx-framework\src\traditional\proc\p18f87j50.asm
                  CCP3CON   0x000fb1       data     extern E:\3.46\pic18-lt\cxx-framework\src\traditional\proc\p18f87j50.asm
              CCP3CONbits   0x000fb1       data     extern E:\3.46\pic18-lt\cxx-framework\src\traditional\proc\p18f87j50.asm
                  CCP4CON   0x000f73       data     extern E:\3.46\pic18-lt\cxx-framework\src\traditional\proc\p18f87j50.asm
              CCP4CONbits   0x000f73       data     extern E:\3.46\pic18-lt\cxx-framework\src\traditional\proc\p18f87j50.asm
                  CCP5CON   0x000f70       data     extern E:\3.46\pic18-lt\cxx-framework\src\traditional\proc\p18f87j50.asm
              CCP5CONbits   0x000f70       data     extern E:\3.46\pic18-lt\cxx-framework\src\traditional\proc\p18f87j50.asm
                    CCPR1   0x000fbc       data     extern E:\3.46\pic18-lt\cxx-framework\src\traditional\proc\p18f87j50.asm
                   CCPR1H   0x000fbd       data     extern E:\3.46\pic18-lt\cxx-framework\src\traditional\proc\p18f87j50.asm
                   CCPR1L   0x000fbc       data     extern E:\3.46\pic18-lt\cxx-framework\src\traditional\proc\p18f87j50.asm
                    CCPR2   0x000fb7       data     extern E:\3.46\pic18-lt\cxx-framework\src\traditional\proc\p18f87j50.asm
                   CCPR2H   0x000fb8       data     extern E:\3.46\pic18-lt\cxx-framework\src\traditional\proc\p18f87j50.asm
                   CCPR2L   0x000fb7       data     extern E:\3.46\pic18-lt\cxx-framework\src\traditional\proc\p18f87j50.asm
                    CCPR3   0x000fb2       data     extern E:\3.46\pic18-lt\cxx-framework\src\traditional\proc\p18f87j50.asm
                   CCPR3H   0x000fb3       data     extern E:\3.46\pic18-lt\cxx-framework\src\traditional\proc\p18f87j50.asm
                   CCPR3L   0x000fb2       data     extern E:\3.46\pic18-lt\cxx-framework\src\traditional\proc\p18f87j50.asm
                    CCPR4   0x000f74       data     extern E:\3.46\pic18-lt\cxx-framework\src\traditional\proc\p18f87j50.asm
                   CCPR4H   0x000f75       data     extern E:\3.46\pic18-lt\cxx-framework\src\traditional\proc\p18f87j50.asm
                   CCPR4L   0x000f74       data     extern E:\3.46\pic18-lt\cxx-framework\src\traditional\proc\p18f87j50.asm
                    CCPR5   0x000f71       data     extern E:\3.46\pic18-lt\cxx-framework\src\traditional\proc\p18f87j50.asm
                   CCPR5H   0x000f72       data     extern E:\3.46\pic18-lt\cxx-framework\src\traditional\proc\p18f87j50.asm
                   CCPR5L   0x000f71       data     extern E:\3.46\pic18-lt\cxx-framework\src\traditional\proc\p18f87j50.asm
                   CM1CON   0x000fd2       data     extern E:\3.46\pic18-lt\cxx-framework\src\traditional\proc\p18f87j50.asm
                  CM1CON1   0x000fd2       data     extern E:\3.46\pic18-lt\cxx-framework\src\traditional\proc\p18f87j50.asm
              CM1CON1bits   0x000fd2       data     extern E:\3.46\pic18-lt\cxx-framework\src\traditional\proc\p18f87j50.asm
               CM1CONbits   0x000fd2       data     extern E:\3.46\pic18-lt\cxx-framework\src\traditional\proc\p18f87j50.asm
                   CM2CON   0x000fd1       data     extern E:\3.46\pic18-lt\cxx-framework\src\traditional\proc\p18f87j50.asm
                  CM2CON1   0x000fd1       data     extern E:\3.46\pic18-lt\cxx-framework\src\traditional\proc\p18f87j50.asm
              CM2CON1bits   0x000fd1       data     extern E:\3.46\pic18-lt\cxx-framework\src\traditional\proc\p18f87j50.asm
               CM2CONbits   0x000fd1       data     extern E:\3.46\pic18-lt\cxx-framework\src\traditional\proc\p18f87j50.asm
                   CMSTAT   0x000f6a       data     extern E:\3.46\pic18-lt\cxx-framework\src\traditional\proc\p18f87j50.asm
                 CMSTATUS   0x000f6a       data     extern E:\3.46\pic18-lt\cxx-framework\src\traditional\proc\p18f87j50.asm
             CMSTATUSbits   0x000f6a       data     extern E:\3.46\pic18-lt\cxx-framework\src\traditional\proc\p18f87j50.asm
               CMSTATbits   0x000f6a       data     extern E:\3.46\pic18-lt\cxx-framework\src\traditional\proc\p18f87j50.asm
                   CVRCON   0x000f77       data     extern E:\3.46\pic18-lt\cxx-framework\src\traditional\proc\p18f87j50.asm
               CVRCONbits   0x000f77       data     extern E:\3.46\pic18-lt\cxx-framework\src\traditional\proc\p18f87j50.asm
                     DDRA   0x000f92       data     extern E:\3.46\pic18-lt\cxx-framework\src\traditional\proc\p18f87j50.asm
                 DDRAbits   0x000f92       data     extern E:\3.46\pic18-lt\cxx-framework\src\traditional\proc\p18f87j50.asm
                     DDRB   0x000f93       data     extern E:\3.46\pic18-lt\cxx-framework\src\traditional\proc\p18f87j50.asm
                 DDRBbits   0x000f93       data     extern E:\3.46\pic18-lt\cxx-framework\src\traditional\proc\p18f87j50.asm
                     DDRC   0x000f94       data     extern E:\3.46\pic18-lt\cxx-framework\src\traditional\proc\p18f87j50.asm
                 DDRCbits   0x000f94       data     extern E:\3.46\pic18-lt\cxx-framework\src\traditional\proc\p18f87j50.asm
                     DDRD   0x000f95       data     extern E:\3.46\pic18-lt\cxx-framework\src\traditional\proc\p18f87j50.asm
                 DDRDbits   0x000f95       data     extern E:\3.46\pic18-lt\cxx-framework\src\traditional\proc\p18f87j50.asm
                     DDRE   0x000f96       data     extern E:\3.46\pic18-lt\cxx-framework\src\traditional\proc\p18f87j50.asm
                 DDREbits   0x000f96       data     extern E:\3.46\pic18-lt\cxx-framework\src\traditional\proc\p18f87j50.asm
                     DDRF   0x000f97       data     extern E:\3.46\pic18-lt\cxx-framework\src\traditional\proc\p18f87j50.asm
                 DDRFbits   0x000f97       data     extern E:\3.46\pic18-lt\cxx-framework\src\traditional\proc\p18f87j50.asm
                     DDRG   0x000f98       data     extern E:\3.46\pic18-lt\cxx-framework\src\traditional\proc\p18f87j50.asm
                 DDRGbits   0x000f98       data     extern E:\3.46\pic18-lt\cxx-framework\src\traditional\proc\p18f87j50.asm
                     DDRH   0x000f99       data     extern E:\3.46\pic18-lt\cxx-framework\src\traditional\proc\p18f87j50.asm
                 DDRHbits   0x000f99       data     extern E:\3.46\pic18-lt\cxx-framework\src\traditional\proc\p18f87j50.asm
                     DDRJ   0x000f9a       data     extern E:\3.46\pic18-lt\cxx-framework\src\traditional\proc\p18f87j50.asm
                 DDRJbits   0x000f9a       data     extern E:\3.46\pic18-lt\cxx-framework\src\traditional\proc\p18f87j50.asm
                  ECCP1AS   0x000fbf       data     extern E:\3.46\pic18-lt\cxx-framework\src\traditional\proc\p18f87j50.asm
              ECCP1ASbits   0x000fbf       data     extern E:\3.46\pic18-lt\cxx-framework\src\traditional\proc\p18f87j50.asm
                 ECCP1CON   0x000fbb       data     extern E:\3.46\pic18-lt\cxx-framework\src\traditional\proc\p18f87j50.asm
             ECCP1CONbits   0x000fbb       data     extern E:\3.46\pic18-lt\cxx-framework\src\traditional\proc\p18f87j50.asm
                 ECCP1DEL   0x000fbe       data     extern E:\3.46\pic18-lt\cxx-framework\src\traditional\proc\p18f87j50.asm
             ECCP1DELbits   0x000fbe       data     extern E:\3.46\pic18-lt\cxx-framework\src\traditional\proc\p18f87j50.asm
                  ECCP2AS   0x000fba       data     extern E:\3.46\pic18-lt\cxx-framework\src\traditional\proc\p18f87j50.asm
              ECCP2ASbits   0x000fba       data     extern E:\3.46\pic18-lt\cxx-framework\src\traditional\proc\p18f87j50.asm
                 ECCP2CON   0x000fb6       data     extern E:\3.46\pic18-lt\cxx-framework\src\traditional\proc\p18f87j50.asm
             ECCP2CONbits   0x000fb6       data     extern E:\3.46\pic18-lt\cxx-framework\src\traditional\proc\p18f87j50.asm
                 ECCP2DEL   0x000fb9       data     extern E:\3.46\pic18-lt\cxx-framework\src\traditional\proc\p18f87j50.asm
             ECCP2DELbits   0x000fb9       data     extern E:\3.46\pic18-lt\cxx-framework\src\traditional\proc\p18f87j50.asm
                  ECCP3AS   0x000fb5       data     extern E:\3.46\pic18-lt\cxx-framework\src\traditional\proc\p18f87j50.asm
              ECCP3ASbits   0x000fb5       data     extern E:\3.46\pic18-lt\cxx-framework\src\traditional\proc\p18f87j50.asm
                 ECCP3CON   0x000fb1       data     extern E:\3.46\pic18-lt\cxx-framework\src\traditional\proc\p18f87j50.asm
             ECCP3CONbits   0x000fb1       data     extern E:\3.46\pic18-lt\cxx-framework\src\traditional\proc\p18f87j50.asm
                 ECCP3DEL   0x000fb4       data     extern E:\3.46\pic18-lt\cxx-framework\src\traditional\proc\p18f87j50.asm
             ECCP3DELbits   0x000fb4       data     extern E:\3.46\pic18-lt\cxx-framework\src\traditional\proc\p18f87j50.asm
                   EECON1   0x000fa6       data     extern E:\3.46\pic18-lt\cxx-framework\src\traditional\proc\p18f87j50.asm
               EECON1bits   0x000fa6       data     extern E:\3.46\pic18-lt\cxx-framework\src\traditional\proc\p18f87j50.asm
                   EECON2   0x000fa7       data     extern E:\3.46\pic18-lt\cxx-framework\src\traditional\proc\p18f87j50.asm
                     FSR0   0x000fe9       data     extern E:\3.46\pic18-lt\cxx-framework\src\traditional\proc\p18f87j50.asm
                    FSR0H   0x000fea       data     extern E:\3.46\pic18-lt\cxx-framework\src\traditional\proc\p18f87j50.asm
                    FSR0L   0x000fe9       data     extern E:\3.46\pic18-lt\cxx-framework\src\traditional\proc\p18f87j50.asm
                     FSR1   0x000fe1       data     extern E:\3.46\pic18-lt\cxx-framework\src\traditional\proc\p18f87j50.asm
                    FSR1H   0x000fe2       data     extern E:\3.46\pic18-lt\cxx-framework\src\traditional\proc\p18f87j50.asm
                    FSR1L   0x000fe1       data     extern E:\3.46\pic18-lt\cxx-framework\src\traditional\proc\p18f87j50.asm
                     FSR2   0x000fd9       data     extern E:\3.46\pic18-lt\cxx-framework\src\traditional\proc\p18f87j50.asm
                    FSR2H   0x000fda       data     extern E:\3.46\pic18-lt\cxx-framework\src\traditional\proc\p18f87j50.asm
                    FSR2L   0x000fd9       data     extern E:\3.46\pic18-lt\cxx-framework\src\traditional\proc\p18f87j50.asm
                    INDF0   0x000fef       data     extern E:\3.46\pic18-lt\cxx-framework\src\traditional\proc\p18f87j50.asm
                    INDF1   0x000fe7       data     extern E:\3.46\pic18-lt\cxx-framework\src\traditional\proc\p18f87j50.asm
                    INDF2   0x000fdf       data     extern E:\3.46\pic18-lt\cxx-framework\src\traditional\proc\p18f87j50.asm
                   INTCON   0x000ff2       data     extern E:\3.46\pic18-lt\cxx-framework\src\traditional\proc\p18f87j50.asm
                  INTCON2   0x000ff1       data     extern E:\3.46\pic18-lt\cxx-framework\src\traditional\proc\p18f87j50.asm
              INTCON2bits   0x000ff1       data     extern E:\3.46\pic18-lt\cxx-framework\src\traditional\proc\p18f87j50.asm
                  INTCON3   0x000ff0       data     extern E:\3.46\pic18-lt\cxx-framework\src\traditional\proc\p18f87j50.asm
              INTCON3bits   0x000ff0       data     extern E:\3.46\pic18-lt\cxx-framework\src\traditional\proc\p18f87j50.asm
               INTCONbits   0x000ff2       data     extern E:\3.46\pic18-lt\cxx-framework\src\traditional\proc\p18f87j50.asm
                     IPR1   0x000f9f       data     extern E:\3.46\pic18-lt\cxx-framework\src\traditional\proc\p18f87j50.asm
                 IPR1bits   0x000f9f       data     extern E:\3.46\pic18-lt\cxx-framework\src\traditional\proc\p18f87j50.asm
                     IPR2   0x000fa2       data     extern E:\3.46\pic18-lt\cxx-framework\src\traditional\proc\p18f87j50.asm
                 IPR2bits   0x000fa2       data     extern E:\3.46\pic18-lt\cxx-framework\src\traditional\proc\p18f87j50.asm
                     IPR3   0x000fa5       data     extern E:\3.46\pic18-lt\cxx-framework\src\traditional\proc\p18f87j50.asm
                 IPR3bits   0x000fa5       data     extern E:\3.46\pic18-lt\cxx-framework\src\traditional\proc\p18f87j50.asm
                     LATA   0x000f89       data     extern E:\3.46\pic18-lt\cxx-framework\src\traditional\proc\p18f87j50.asm
                 LATAbits   0x000f89       data     extern E:\3.46\pic18-lt\cxx-framework\src\traditional\proc\p18f87j50.asm
                     LATB   0x000f8a       data     extern E:\3.46\pic18-lt\cxx-framework\src\traditional\proc\p18f87j50.asm
                 LATBbits   0x000f8a       data     extern E:\3.46\pic18-lt\cxx-framework\src\traditional\proc\p18f87j50.asm
                     LATC   0x000f8b       data     extern E:\3.46\pic18-lt\cxx-framework\src\traditional\proc\p18f87j50.asm
                 LATCbits   0x000f8b       data     extern E:\3.46\pic18-lt\cxx-framework\src\traditional\proc\p18f87j50.asm
                     LATD   0x000f8c       data     extern E:\3.46\pic18-lt\cxx-framework\src\traditional\proc\p18f87j50.asm
                 LATDbits   0x000f8c       data     extern E:\3.46\pic18-lt\cxx-framework\src\traditional\proc\p18f87j50.asm
                     LATE   0x000f8d       data     extern E:\3.46\pic18-lt\cxx-framework\src\traditional\proc\p18f87j50.asm
                 LATEbits   0x000f8d       data     extern E:\3.46\pic18-lt\cxx-framework\src\traditional\proc\p18f87j50.asm
                     LATF   0x000f8e       data     extern E:\3.46\pic18-lt\cxx-framework\src\traditional\proc\p18f87j50.asm
                 LATFbits   0x000f8e       data     extern E:\3.46\pic18-lt\cxx-framework\src\traditional\proc\p18f87j50.asm
                     LATG   0x000f8f       data     extern E:\3.46\pic18-lt\cxx-framework\src\traditional\proc\p18f87j50.asm
                 LATGbits   0x000f8f       data     extern E:\3.46\pic18-lt\cxx-framework\src\traditional\proc\p18f87j50.asm
                     LATH   0x000f90       data     extern E:\3.46\pic18-lt\cxx-framework\src\traditional\proc\p18f87j50.asm
                 LATHbits   0x000f90       data     extern E:\3.46\pic18-lt\cxx-framework\src\traditional\proc\p18f87j50.asm
                     LATJ   0x000f91       data     extern E:\3.46\pic18-lt\cxx-framework\src\traditional\proc\p18f87j50.asm
                 LATJbits   0x000f91       data     extern E:\3.46\pic18-lt\cxx-framework\src\traditional\proc\p18f87j50.asm
                   MEMCON   0x000fcb       data     extern E:\3.46\pic18-lt\cxx-framework\src\traditional\proc\p18f87j50.asm
               MEMCONbits   0x000fcb       data     extern E:\3.46\pic18-lt\cxx-framework\src\traditional\proc\p18f87j50.asm
            M_AI_ADC_Data   0x0000b4       data     extern D:\Vl_prj\Solid_fuel_boiler(rev 2_0)\Software\src\Module_analog_inputs\module_analog_inputs.c
            M_AI_ptrTable   0x0000b0       data     extern D:\Vl_prj\Solid_fuel_boiler(rev 2_0)\Software\src\Module_analog_inputs\module_analog_inputs.c
     M_Ind_Previous_State   0x0000ad       data     extern D:\Vl_prj\Solid_fuel_boiler(rev 2_0)\Software\src\Module_indication\module_indication.c
              M_Ind_State   0x0000ac       data     extern D:\Vl_prj\Solid_fuel_boiler(rev 2_0)\Software\src\Module_indication\module_indication.c
               M_Ind_data   0x000093       data     extern D:\Vl_prj\Solid_fuel_boiler(rev 2_0)\Software\src\Module_indication\module_indication.c
           M_LI_Key_State   0x0000d1       data     extern D:\Vl_prj\Solid_fuel_boiler(rev 2_0)\Software\src\Module_logic_inputs\module_logic_inputs.c
      M_LI_Limit_Switches   0x0000d4       data     extern D:\Vl_prj\Solid_fuel_boiler(rev 2_0)\Software\src\Module_logic_inputs\module_logic_inputs.c
       M_LI_accum_pressed   0x0000dd       data     static D:\Vl_prj\Solid_fuel_boiler(rev 2_0)\Software\src\Module_logic_inputs\module_logic_inputs.c
    M_Menu_src_param_menu   0x000f3d       data     extern D:\Vl_prj\Solid_fuel_boiler(rev 2_0)\Software\src\Menu\menu.c
      M_Mngm_Code_Failure   0x0000c2       data     extern D:\Vl_prj\Solid_fuel_boiler(rev 2_0)\Software\src\Module_management\module_management.c
    M_Mngm_Previous_State   0x0000c3       data     extern D:\Vl_prj\Solid_fuel_boiler(rev 2_0)\Software\src\Module_management\module_management.c
             M_Mngm_State   0x0000c1       data     extern D:\Vl_prj\Solid_fuel_boiler(rev 2_0)\Software\src\Module_management\module_management.c
 M_Mngm_parameters_buffer   0x000f01       data     extern D:\Vl_prj\Solid_fuel_boiler(rev 2_0)\Software\src\Module_management\module_management.c
     M_Mngm_state_draught   0x0000cb       data     extern D:\Vl_prj\Solid_fuel_boiler(rev 2_0)\Software\src\Module_management\module_management.c
       M_Motor_PWM_period   0x000063       data     extern D:\Vl_prj\Solid_fuel_boiler(rev 2_0)\Software\src\Module_motor\module_motor.c
M_Motor_direction_question_LS   0x00006f       data     extern D:\Vl_prj\Solid_fuel_boiler(rev 2_0)\Software\src\Module_motor\module_motor.c
    M_Motor_failure_motor   0x000085       data     extern D:\Vl_prj\Solid_fuel_boiler(rev 2_0)\Software\src\Module_motor\module_motor.c
   M_Motor_false_state_LS   0x00006a       data     extern D:\Vl_prj\Solid_fuel_boiler(rev 2_0)\Software\src\Module_motor\module_motor.c
       M_Motor_prev_state   0x000076       data     extern D:\Vl_prj\Solid_fuel_boiler(rev 2_0)\Software\src\Module_motor\module_motor.c
            M_Motor_state   0x000064       data     extern D:\Vl_prj\Solid_fuel_boiler(rev 2_0)\Software\src\Module_motor\module_motor.c
            M_fan_is_220V   0x0000df       data     extern D:\Vl_prj\Solid_fuel_boiler(rev 2_0)\Software\src\Module_fan\module_fan.c
     M_fan_previous_state   0x0000e2       data     extern D:\Vl_prj\Solid_fuel_boiler(rev 2_0)\Software\src\Module_fan\module_fan.c
              M_fan_state   0x0000e1       data     extern D:\Vl_prj\Solid_fuel_boiler(rev 2_0)\Software\src\Module_fan\module_fan.c
       Menu_Num_Page_Menu   0x000f3c       data     extern D:\Vl_prj\Solid_fuel_boiler(rev 2_0)\Software\src\Menu\menu.c
       Menu_manual_supply   0x000f3f       data     extern D:\Vl_prj\Solid_fuel_boiler(rev 2_0)\Software\src\Menu\menu.c
                   ODCON1   0x000fcf       data     extern E:\3.46\pic18-lt\cxx-framework\src\traditional\proc\p18f87j50.asm
               ODCON1bits   0x000fcf       data     extern E:\3.46\pic18-lt\cxx-framework\src\traditional\proc\p18f87j50.asm
                   ODCON2   0x000fce       data     extern E:\3.46\pic18-lt\cxx-framework\src\traditional\proc\p18f87j50.asm
               ODCON2bits   0x000fce       data     extern E:\3.46\pic18-lt\cxx-framework\src\traditional\proc\p18f87j50.asm
                   ODCON3   0x000fcd       data     extern E:\3.46\pic18-lt\cxx-framework\src\traditional\proc\p18f87j50.asm
               ODCON3bits   0x000fcd       data     extern E:\3.46\pic18-lt\cxx-framework\src\traditional\proc\p18f87j50.asm
                   OSCCON   0x000fd3       data     extern E:\3.46\pic18-lt\cxx-framework\src\traditional\proc\p18f87j50.asm
               OSCCONbits   0x000fd3       data     extern E:\3.46\pic18-lt\cxx-framework\src\traditional\proc\p18f87j50.asm
                  OSCTUNE   0x000f9b       data     extern E:\3.46\pic18-lt\cxx-framework\src\traditional\proc\p18f87j50.asm
              OSCTUNEbits   0x000f9b       data     extern E:\3.46\pic18-lt\cxx-framework\src\traditional\proc\p18f87j50.asm
                  PADCFG1   0x000fcc       data     extern E:\3.46\pic18-lt\cxx-framework\src\traditional\proc\p18f87j50.asm
              PADCFG1bits   0x000fcc       data     extern E:\3.46\pic18-lt\cxx-framework\src\traditional\proc\p18f87j50.asm
                       PC   0x000ff9       data     extern E:\3.46\pic18-lt\cxx-framework\src\traditional\proc\p18f87j50.asm
                      PCL   0x000ff9       data     extern E:\3.46\pic18-lt\cxx-framework\src\traditional\proc\p18f87j50.asm
                   PCLATH   0x000ffa       data     extern E:\3.46\pic18-lt\cxx-framework\src\traditional\proc\p18f87j50.asm
                   PCLATU   0x000ffb       data     extern E:\3.46\pic18-lt\cxx-framework\src\traditional\proc\p18f87j50.asm
                     PIE1   0x000f9d       data     extern E:\3.46\pic18-lt\cxx-framework\src\traditional\proc\p18f87j50.asm
                 PIE1bits   0x000f9d       data     extern E:\3.46\pic18-lt\cxx-framework\src\traditional\proc\p18f87j50.asm
                     PIE2   0x000fa0       data     extern E:\3.46\pic18-lt\cxx-framework\src\traditional\proc\p18f87j50.asm
                 PIE2bits   0x000fa0       data     extern E:\3.46\pic18-lt\cxx-framework\src\traditional\proc\p18f87j50.asm
                     PIE3   0x000fa3       data     extern E:\3.46\pic18-lt\cxx-framework\src\traditional\proc\p18f87j50.asm
                 PIE3bits   0x000fa3       data     extern E:\3.46\pic18-lt\cxx-framework\src\traditional\proc\p18f87j50.asm
                     PIR1   0x000f9e       data     extern E:\3.46\pic18-lt\cxx-framework\src\traditional\proc\p18f87j50.asm
                 PIR1bits   0x000f9e       data     extern E:\3.46\pic18-lt\cxx-framework\src\traditional\proc\p18f87j50.asm
                     PIR2   0x000fa1       data     extern E:\3.46\pic18-lt\cxx-framework\src\traditional\proc\p18f87j50.asm
                 PIR2bits   0x000fa1       data     extern E:\3.46\pic18-lt\cxx-framework\src\traditional\proc\p18f87j50.asm
                     PIR3   0x000fa4       data     extern E:\3.46\pic18-lt\cxx-framework\src\traditional\proc\p18f87j50.asm
                 PIR3bits   0x000fa4       data     extern E:\3.46\pic18-lt\cxx-framework\src\traditional\proc\p18f87j50.asm
                   PLUSW0   0x000feb       data     extern E:\3.46\pic18-lt\cxx-framework\src\traditional\proc\p18f87j50.asm
                   PLUSW1   0x000fe3       data     extern E:\3.46\pic18-lt\cxx-framework\src\traditional\proc\p18f87j50.asm
                   PLUSW2   0x000fdb       data     extern E:\3.46\pic18-lt\cxx-framework\src\traditional\proc\p18f87j50.asm
                   PMADDR   0x000f68       data     extern E:\3.46\pic18-lt\cxx-framework\src\traditional\proc\p18f87j50.asm
                  PMADDRH   0x000f69       data     extern E:\3.46\pic18-lt\cxx-framework\src\traditional\proc\p18f87j50.asm
              PMADDRHbits   0x000f69       data     extern E:\3.46\pic18-lt\cxx-framework\src\traditional\proc\p18f87j50.asm
                  PMADDRL   0x000f68       data     extern E:\3.46\pic18-lt\cxx-framework\src\traditional\proc\p18f87j50.asm
                    PMCON   0x000f4a       data     extern E:\3.46\pic18-lt\cxx-framework\src\traditional\proc\p18f87j50.asm
                   PMCONH   0x000f4b       data     extern E:\3.46\pic18-lt\cxx-framework\src\traditional\proc\p18f87j50.asm
               PMCONHbits   0x000f4b       data     extern E:\3.46\pic18-lt\cxx-framework\src\traditional\proc\p18f87j50.asm
                   PMCONL   0x000f4a       data     extern E:\3.46\pic18-lt\cxx-framework\src\traditional\proc\p18f87j50.asm
               PMCONLbits   0x000f4a       data     extern E:\3.46\pic18-lt\cxx-framework\src\traditional\proc\p18f87j50.asm
                   PMDIN1   0x000f66       data     extern E:\3.46\pic18-lt\cxx-framework\src\traditional\proc\p18f87j50.asm
                  PMDIN1H   0x000f67       data     extern E:\3.46\pic18-lt\cxx-framework\src\traditional\proc\p18f87j50.asm
                  PMDIN1L   0x000f66       data     extern E:\3.46\pic18-lt\cxx-framework\src\traditional\proc\p18f87j50.asm
                   PMDIN2   0x000f44       data     extern E:\3.46\pic18-lt\cxx-framework\src\traditional\proc\p18f87j50.asm
                  PMDIN2H   0x000f45       data     extern E:\3.46\pic18-lt\cxx-framework\src\traditional\proc\p18f87j50.asm
                  PMDIN2L   0x000f44       data     extern E:\3.46\pic18-lt\cxx-framework\src\traditional\proc\p18f87j50.asm
                  PMDOUT1   0x000f68       data     extern E:\3.46\pic18-lt\cxx-framework\src\traditional\proc\p18f87j50.asm
                 PMDOUT1H   0x000f69       data     extern E:\3.46\pic18-lt\cxx-framework\src\traditional\proc\p18f87j50.asm
                 PMDOUT1L   0x000f68       data     extern E:\3.46\pic18-lt\cxx-framework\src\traditional\proc\p18f87j50.asm
                  PMDOUT2   0x000f46       data     extern E:\3.46\pic18-lt\cxx-framework\src\traditional\proc\p18f87j50.asm
                 PMDOUT2H   0x000f47       data     extern E:\3.46\pic18-lt\cxx-framework\src\traditional\proc\p18f87j50.asm
                 PMDOUT2L   0x000f46       data     extern E:\3.46\pic18-lt\cxx-framework\src\traditional\proc\p18f87j50.asm
                     PMEH   0x000f43       data     extern E:\3.46\pic18-lt\cxx-framework\src\traditional\proc\p18f87j50.asm
                 PMEHbits   0x000f43       data     extern E:\3.46\pic18-lt\cxx-framework\src\traditional\proc\p18f87j50.asm
                     PMEL   0x000f42       data     extern E:\3.46\pic18-lt\cxx-framework\src\traditional\proc\p18f87j50.asm
                 PMELbits   0x000f42       data     extern E:\3.46\pic18-lt\cxx-framework\src\traditional\proc\p18f87j50.asm
                     PMEN   0x000f42       data     extern E:\3.46\pic18-lt\cxx-framework\src\traditional\proc\p18f87j50.asm
                   PMMODE   0x000f48       data     extern E:\3.46\pic18-lt\cxx-framework\src\traditional\proc\p18f87j50.asm
                  PMMODEH   0x000f49       data     extern E:\3.46\pic18-lt\cxx-framework\src\traditional\proc\p18f87j50.asm
              PMMODEHbits   0x000f49       data     extern E:\3.46\pic18-lt\cxx-framework\src\traditional\proc\p18f87j50.asm
                  PMMODEL   0x000f48       data     extern E:\3.46\pic18-lt\cxx-framework\src\traditional\proc\p18f87j50.asm
              PMMODELbits   0x000f48       data     extern E:\3.46\pic18-lt\cxx-framework\src\traditional\proc\p18f87j50.asm
                   PMSTAT   0x000f40       data     extern E:\3.46\pic18-lt\cxx-framework\src\traditional\proc\p18f87j50.asm
                  PMSTATH   0x000f41       data     extern E:\3.46\pic18-lt\cxx-framework\src\traditional\proc\p18f87j50.asm
              PMSTATHbits   0x000f41       data     extern E:\3.46\pic18-lt\cxx-framework\src\traditional\proc\p18f87j50.asm
                  PMSTATL   0x000f40       data     extern E:\3.46\pic18-lt\cxx-framework\src\traditional\proc\p18f87j50.asm
              PMSTATLbits   0x000f40       data     extern E:\3.46\pic18-lt\cxx-framework\src\traditional\proc\p18f87j50.asm
                    PORTA   0x000f80       data     extern E:\3.46\pic18-lt\cxx-framework\src\traditional\proc\p18f87j50.asm
                PORTAbits   0x000f80       data     extern E:\3.46\pic18-lt\cxx-framework\src\traditional\proc\p18f87j50.asm
                    PORTB   0x000f81       data     extern E:\3.46\pic18-lt\cxx-framework\src\traditional\proc\p18f87j50.asm
                PORTBbits   0x000f81       data     extern E:\3.46\pic18-lt\cxx-framework\src\traditional\proc\p18f87j50.asm
                    PORTC   0x000f82       data     extern E:\3.46\pic18-lt\cxx-framework\src\traditional\proc\p18f87j50.asm
                PORTCbits   0x000f82       data     extern E:\3.46\pic18-lt\cxx-framework\src\traditional\proc\p18f87j50.asm
                    PORTD   0x000f83       data     extern E:\3.46\pic18-lt\cxx-framework\src\traditional\proc\p18f87j50.asm
                PORTDbits   0x000f83       data     extern E:\3.46\pic18-lt\cxx-framework\src\traditional\proc\p18f87j50.asm
                    PORTE   0x000f84       data     extern E:\3.46\pic18-lt\cxx-framework\src\traditional\proc\p18f87j50.asm
                PORTEbits   0x000f84       data     extern E:\3.46\pic18-lt\cxx-framework\src\traditional\proc\p18f87j50.asm
                    PORTF   0x000f85       data     extern E:\3.46\pic18-lt\cxx-framework\src\traditional\proc\p18f87j50.asm
                PORTFbits   0x000f85       data     extern E:\3.46\pic18-lt\cxx-framework\src\traditional\proc\p18f87j50.asm
                    PORTG   0x000f86       data     extern E:\3.46\pic18-lt\cxx-framework\src\traditional\proc\p18f87j50.asm
                PORTGbits   0x000f86       data     extern E:\3.46\pic18-lt\cxx-framework\src\traditional\proc\p18f87j50.asm
                    PORTH   0x000f87       data     extern E:\3.46\pic18-lt\cxx-framework\src\traditional\proc\p18f87j50.asm
                PORTHbits   0x000f87       data     extern E:\3.46\pic18-lt\cxx-framework\src\traditional\proc\p18f87j50.asm
                    PORTJ   0x000f88       data     extern E:\3.46\pic18-lt\cxx-framework\src\traditional\proc\p18f87j50.asm
                PORTJbits   0x000f88       data     extern E:\3.46\pic18-lt\cxx-framework\src\traditional\proc\p18f87j50.asm
                 POSTDEC0   0x000fed       data     extern E:\3.46\pic18-lt\cxx-framework\src\traditional\proc\p18f87j50.asm
                 POSTDEC1   0x000fe5       data     extern E:\3.46\pic18-lt\cxx-framework\src\traditional\proc\p18f87j50.asm
                 POSTDEC2   0x000fdd       data     extern E:\3.46\pic18-lt\cxx-framework\src\traditional\proc\p18f87j50.asm
                 POSTINC0   0x000fee       data     extern E:\3.46\pic18-lt\cxx-framework\src\traditional\proc\p18f87j50.asm
                 POSTINC1   0x000fe6       data     extern E:\3.46\pic18-lt\cxx-framework\src\traditional\proc\p18f87j50.asm
                 POSTINC2   0x000fde       data     extern E:\3.46\pic18-lt\cxx-framework\src\traditional\proc\p18f87j50.asm
                      PR2   0x000fcb       data     extern E:\3.46\pic18-lt\cxx-framework\src\traditional\proc\p18f87j50.asm
                      PR4   0x000f77       data     extern E:\3.46\pic18-lt\cxx-framework\src\traditional\proc\p18f87j50.asm
                  PREINC0   0x000fec       data     extern E:\3.46\pic18-lt\cxx-framework\src\traditional\proc\p18f87j50.asm
                  PREINC1   0x000fe4       data     extern E:\3.46\pic18-lt\cxx-framework\src\traditional\proc\p18f87j50.asm
                  PREINC2   0x000fdc       data     extern E:\3.46\pic18-lt\cxx-framework\src\traditional\proc\p18f87j50.asm
                     PROD   0x000ff3       data     extern E:\3.46\pic18-lt\cxx-framework\src\traditional\proc\p18f87j50.asm
                    PRODH   0x000ff4       data     extern E:\3.46\pic18-lt\cxx-framework\src\traditional\proc\p18f87j50.asm
                    PRODL   0x000ff3       data     extern E:\3.46\pic18-lt\cxx-framework\src\traditional\proc\p18f87j50.asm
                     RCON   0x000fd0       data     extern E:\3.46\pic18-lt\cxx-framework\src\traditional\proc\p18f87j50.asm
                 RCONbits   0x000fd0       data     extern E:\3.46\pic18-lt\cxx-framework\src\traditional\proc\p18f87j50.asm
                    RCREG   0x000faf       data     extern E:\3.46\pic18-lt\cxx-framework\src\traditional\proc\p18f87j50.asm
                   RCREG1   0x000faf       data     extern E:\3.46\pic18-lt\cxx-framework\src\traditional\proc\p18f87j50.asm
                   RCREG2   0x000faa       data     extern E:\3.46\pic18-lt\cxx-framework\src\traditional\proc\p18f87j50.asm
                    RCSTA   0x000fac       data     extern E:\3.46\pic18-lt\cxx-framework\src\traditional\proc\p18f87j50.asm
                   RCSTA1   0x000fac       data     extern E:\3.46\pic18-lt\cxx-framework\src\traditional\proc\p18f87j50.asm
               RCSTA1bits   0x000fac       data     extern E:\3.46\pic18-lt\cxx-framework\src\traditional\proc\p18f87j50.asm
                   RCSTA2   0x000f9c       data     extern E:\3.46\pic18-lt\cxx-framework\src\traditional\proc\p18f87j50.asm
               RCSTA2bits   0x000f9c       data     extern E:\3.46\pic18-lt\cxx-framework\src\traditional\proc\p18f87j50.asm
                RCSTAbits   0x000fac       data     extern E:\3.46\pic18-lt\cxx-framework\src\traditional\proc\p18f87j50.asm
                  REFOCON   0x000fd3       data     extern E:\3.46\pic18-lt\cxx-framework\src\traditional\proc\p18f87j50.asm
              REFOCONbits   0x000fd3       data     extern E:\3.46\pic18-lt\cxx-framework\src\traditional\proc\p18f87j50.asm
                     SIGN   0x00001e       data     extern E:\3.46\pic18-lt\cxx-framework\src\traditional\math\cmath18.asm
                    SPBRG   0x000fb0       data     extern E:\3.46\pic18-lt\cxx-framework\src\traditional\proc\p18f87j50.asm
                   SPBRG1   0x000fb0       data     extern E:\3.46\pic18-lt\cxx-framework\src\traditional\proc\p18f87j50.asm
                   SPBRG2   0x000fab       data     extern E:\3.46\pic18-lt\cxx-framework\src\traditional\proc\p18f87j50.asm
                   SPBRGH   0x000f7f       data     extern E:\3.46\pic18-lt\cxx-framework\src\traditional\proc\p18f87j50.asm
                  SPBRGH1   0x000f7f       data     extern E:\3.46\pic18-lt\cxx-framework\src\traditional\proc\p18f87j50.asm
                  SPBRGH2   0x000f7d       data     extern E:\3.46\pic18-lt\cxx-framework\src\traditional\proc\p18f87j50.asm
                  SSP1ADD   0x000fc8       data     extern E:\3.46\pic18-lt\cxx-framework\src\traditional\proc\p18f87j50.asm
                  SSP1BUF   0x000fc9       data     extern E:\3.46\pic18-lt\cxx-framework\src\traditional\proc\p18f87j50.asm
                 SSP1CON1   0x000fc6       data     extern E:\3.46\pic18-lt\cxx-framework\src\traditional\proc\p18f87j50.asm
             SSP1CON1bits   0x000fc6       data     extern E:\3.46\pic18-lt\cxx-framework\src\traditional\proc\p18f87j50.asm
                 SSP1CON2   0x000fc5       data     extern E:\3.46\pic18-lt\cxx-framework\src\traditional\proc\p18f87j50.asm
             SSP1CON2bits   0x000fc5       data     extern E:\3.46\pic18-lt\cxx-framework\src\traditional\proc\p18f87j50.asm
                  SSP1MSK   0x000fc8       data     extern E:\3.46\pic18-lt\cxx-framework\src\traditional\proc\p18f87j50.asm
              SSP1MSKbits   0x000fc8       data     extern E:\3.46\pic18-lt\cxx-framework\src\traditional\proc\p18f87j50.asm
                 SSP1STAT   0x000fc7       data     extern E:\3.46\pic18-lt\cxx-framework\src\traditional\proc\p18f87j50.asm
             SSP1STATbits   0x000fc7       data     extern E:\3.46\pic18-lt\cxx-framework\src\traditional\proc\p18f87j50.asm
                  SSP2ADD   0x000f6e       data     extern E:\3.46\pic18-lt\cxx-framework\src\traditional\proc\p18f87j50.asm
                  SSP2BUF   0x000f6f       data     extern E:\3.46\pic18-lt\cxx-framework\src\traditional\proc\p18f87j50.asm
                 SSP2CON1   0x000f6c       data     extern E:\3.46\pic18-lt\cxx-framework\src\traditional\proc\p18f87j50.asm
             SSP2CON1bits   0x000f6c       data     extern E:\3.46\pic18-lt\cxx-framework\src\traditional\proc\p18f87j50.asm
                 SSP2CON2   0x000f6b       data     extern E:\3.46\pic18-lt\cxx-framework\src\traditional\proc\p18f87j50.asm
             SSP2CON2bits   0x000f6b       data     extern E:\3.46\pic18-lt\cxx-framework\src\traditional\proc\p18f87j50.asm
                  SSP2MSK   0x000f6e       data     extern E:\3.46\pic18-lt\cxx-framework\src\traditional\proc\p18f87j50.asm
              SSP2MSKbits   0x000f6e       data     extern E:\3.46\pic18-lt\cxx-framework\src\traditional\proc\p18f87j50.asm
                 SSP2STAT   0x000f6d       data     extern E:\3.46\pic18-lt\cxx-framework\src\traditional\proc\p18f87j50.asm
             SSP2STATbits   0x000f6d       data     extern E:\3.46\pic18-lt\cxx-framework\src\traditional\proc\p18f87j50.asm
                   SSPADD   0x000fc8       data     extern E:\3.46\pic18-lt\cxx-framework\src\traditional\proc\p18f87j50.asm
                   SSPBUF   0x000fc9       data     extern E:\3.46\pic18-lt\cxx-framework\src\traditional\proc\p18f87j50.asm
                  SSPCON1   0x000fc6       data     extern E:\3.46\pic18-lt\cxx-framework\src\traditional\proc\p18f87j50.asm
              SSPCON1bits   0x000fc6       data     extern E:\3.46\pic18-lt\cxx-framework\src\traditional\proc\p18f87j50.asm
                  SSPCON2   0x000fc5       data     extern E:\3.46\pic18-lt\cxx-framework\src\traditional\proc\p18f87j50.asm
              SSPCON2bits   0x000fc5       data     extern E:\3.46\pic18-lt\cxx-framework\src\traditional\proc\p18f87j50.asm
                  SSPSTAT   0x000fc7       data     extern E:\3.46\pic18-lt\cxx-framework\src\traditional\proc\p18f87j50.asm
              SSPSTATbits   0x000fc7       data     extern E:\3.46\pic18-lt\cxx-framework\src\traditional\proc\p18f87j50.asm
                   STATUS   0x000fd8       data     extern E:\3.46\pic18-lt\cxx-framework\src\traditional\proc\p18f87j50.asm
               STATUSbits   0x000fd8       data     extern E:\3.46\pic18-lt\cxx-framework\src\traditional\proc\p18f87j50.asm
                   STKPTR   0x000ffc       data     extern E:\3.46\pic18-lt\cxx-framework\src\traditional\proc\p18f87j50.asm
               STKPTRbits   0x000ffc       data     extern E:\3.46\pic18-lt\cxx-framework\src\traditional\proc\p18f87j50.asm
                    T0CON   0x000fd5       data     extern E:\3.46\pic18-lt\cxx-framework\src\traditional\proc\p18f87j50.asm
                T0CONbits   0x000fd5       data     extern E:\3.46\pic18-lt\cxx-framework\src\traditional\proc\p18f87j50.asm
                    T1CON   0x000fcd       data     extern E:\3.46\pic18-lt\cxx-framework\src\traditional\proc\p18f87j50.asm
                T1CONbits   0x000fcd       data     extern E:\3.46\pic18-lt\cxx-framework\src\traditional\proc\p18f87j50.asm
                    T2CON   0x000fca       data     extern E:\3.46\pic18-lt\cxx-framework\src\traditional\proc\p18f87j50.asm
                T2CONbits   0x000fca       data     extern E:\3.46\pic18-lt\cxx-framework\src\traditional\proc\p18f87j50.asm
                    T3CON   0x000f79       data     extern E:\3.46\pic18-lt\cxx-framework\src\traditional\proc\p18f87j50.asm
                T3CONbits   0x000f79       data     extern E:\3.46\pic18-lt\cxx-framework\src\traditional\proc\p18f87j50.asm
                    T4CON   0x000f76       data     extern E:\3.46\pic18-lt\cxx-framework\src\traditional\proc\p18f87j50.asm
                T4CONbits   0x000f76       data     extern E:\3.46\pic18-lt\cxx-framework\src\traditional\proc\p18f87j50.asm
                   TABLAT   0x000ff5       data     extern E:\3.46\pic18-lt\cxx-framework\src\traditional\proc\p18f87j50.asm
                   TBLPTR   0x000ff6       data     extern E:\3.46\pic18-lt\cxx-framework\src\traditional\proc\p18f87j50.asm
                  TBLPTRH   0x000ff7       data     extern E:\3.46\pic18-lt\cxx-framework\src\traditional\proc\p18f87j50.asm
                  TBLPTRL   0x000ff6       data     extern E:\3.46\pic18-lt\cxx-framework\src\traditional\proc\p18f87j50.asm
                  TBLPTRU   0x000ff8       data     extern E:\3.46\pic18-lt\cxx-framework\src\traditional\proc\p18f87j50.asm
                    TMR0H   0x000fd7       data     extern E:\3.46\pic18-lt\cxx-framework\src\traditional\proc\p18f87j50.asm
                    TMR0L   0x000fd6       data     extern E:\3.46\pic18-lt\cxx-framework\src\traditional\proc\p18f87j50.asm
                    TMR1H   0x000fcf       data     extern E:\3.46\pic18-lt\cxx-framework\src\traditional\proc\p18f87j50.asm
                    TMR1L   0x000fce       data     extern E:\3.46\pic18-lt\cxx-framework\src\traditional\proc\p18f87j50.asm
                     TMR2   0x000fcc       data     extern E:\3.46\pic18-lt\cxx-framework\src\traditional\proc\p18f87j50.asm
                    TMR3H   0x000f7b       data     extern E:\3.46\pic18-lt\cxx-framework\src\traditional\proc\p18f87j50.asm
                    TMR3L   0x000f7a       data     extern E:\3.46\pic18-lt\cxx-framework\src\traditional\proc\p18f87j50.asm
                     TMR4   0x000f78       data     extern E:\3.46\pic18-lt\cxx-framework\src\traditional\proc\p18f87j50.asm
                      TOS   0x000ffd       data     extern E:\3.46\pic18-lt\cxx-framework\src\traditional\proc\p18f87j50.asm
                     TOSH   0x000ffe       data     extern E:\3.46\pic18-lt\cxx-framework\src\traditional\proc\p18f87j50.asm
                     TOSL   0x000ffd       data     extern E:\3.46\pic18-lt\cxx-framework\src\traditional\proc\p18f87j50.asm
                     TOSU   0x000fff       data     extern E:\3.46\pic18-lt\cxx-framework\src\traditional\proc\p18f87j50.asm
                    TRISA   0x000f92       data     extern E:\3.46\pic18-lt\cxx-framework\src\traditional\proc\p18f87j50.asm
                TRISAbits   0x000f92       data     extern E:\3.46\pic18-lt\cxx-framework\src\traditional\proc\p18f87j50.asm
                    TRISB   0x000f93       data     extern E:\3.46\pic18-lt\cxx-framework\src\traditional\proc\p18f87j50.asm
                TRISBbits   0x000f93       data     extern E:\3.46\pic18-lt\cxx-framework\src\traditional\proc\p18f87j50.asm
                    TRISC   0x000f94       data     extern E:\3.46\pic18-lt\cxx-framework\src\traditional\proc\p18f87j50.asm
                TRISCbits   0x000f94       data     extern E:\3.46\pic18-lt\cxx-framework\src\traditional\proc\p18f87j50.asm
                    TRISD   0x000f95       data     extern E:\3.46\pic18-lt\cxx-framework\src\traditional\proc\p18f87j50.asm
                TRISDbits   0x000f95       data     extern E:\3.46\pic18-lt\cxx-framework\src\traditional\proc\p18f87j50.asm
                    TRISE   0x000f96       data     extern E:\3.46\pic18-lt\cxx-framework\src\traditional\proc\p18f87j50.asm
                TRISEbits   0x000f96       data     extern E:\3.46\pic18-lt\cxx-framework\src\traditional\proc\p18f87j50.asm
                    TRISF   0x000f97       data     extern E:\3.46\pic18-lt\cxx-framework\src\traditional\proc\p18f87j50.asm
                TRISFbits   0x000f97       data     extern E:\3.46\pic18-lt\cxx-framework\src\traditional\proc\p18f87j50.asm
                    TRISG   0x000f98       data     extern E:\3.46\pic18-lt\cxx-framework\src\traditional\proc\p18f87j50.asm
                TRISGbits   0x000f98       data     extern E:\3.46\pic18-lt\cxx-framework\src\traditional\proc\p18f87j50.asm
                    TRISH   0x000f99       data     extern E:\3.46\pic18-lt\cxx-framework\src\traditional\proc\p18f87j50.asm
                TRISHbits   0x000f99       data     extern E:\3.46\pic18-lt\cxx-framework\src\traditional\proc\p18f87j50.asm
                    TRISJ   0x000f9a       data     extern E:\3.46\pic18-lt\cxx-framework\src\traditional\proc\p18f87j50.asm
                TRISJbits   0x000f9a       data     extern E:\3.46\pic18-lt\cxx-framework\src\traditional\proc\p18f87j50.asm
                    TXREG   0x000fae       data     extern E:\3.46\pic18-lt\cxx-framework\src\traditional\proc\p18f87j50.asm
                   TXREG1   0x000fae       data     extern E:\3.46\pic18-lt\cxx-framework\src\traditional\proc\p18f87j50.asm
                   TXREG2   0x000fa9       data     extern E:\3.46\pic18-lt\cxx-framework\src\traditional\proc\p18f87j50.asm
                    TXSTA   0x000fad       data     extern E:\3.46\pic18-lt\cxx-framework\src\traditional\proc\p18f87j50.asm
                   TXSTA1   0x000fad       data     extern E:\3.46\pic18-lt\cxx-framework\src\traditional\proc\p18f87j50.asm
               TXSTA1bits   0x000fad       data     extern E:\3.46\pic18-lt\cxx-framework\src\traditional\proc\p18f87j50.asm
                   TXSTA2   0x000fa8       data     extern E:\3.46\pic18-lt\cxx-framework\src\traditional\proc\p18f87j50.asm
               TXSTA2bits   0x000fa8       data     extern E:\3.46\pic18-lt\cxx-framework\src\traditional\proc\p18f87j50.asm
                TXSTAbits   0x000fad       data     extern E:\3.46\pic18-lt\cxx-framework\src\traditional\proc\p18f87j50.asm
                    UADDR   0x000f5e       data     extern E:\3.46\pic18-lt\cxx-framework\src\traditional\proc\p18f87j50.asm
                UADDRbits   0x000f5e       data     extern E:\3.46\pic18-lt\cxx-framework\src\traditional\proc\p18f87j50.asm
                     UCFG   0x000f5f       data     extern E:\3.46\pic18-lt\cxx-framework\src\traditional\proc\p18f87j50.asm
                 UCFGbits   0x000f5f       data     extern E:\3.46\pic18-lt\cxx-framework\src\traditional\proc\p18f87j50.asm
                     UCON   0x000f65       data     extern E:\3.46\pic18-lt\cxx-framework\src\traditional\proc\p18f87j50.asm
                 UCONbits   0x000f65       data     extern E:\3.46\pic18-lt\cxx-framework\src\traditional\proc\p18f87j50.asm
                     UEIE   0x000f5d       data     extern E:\3.46\pic18-lt\cxx-framework\src\traditional\proc\p18f87j50.asm
                 UEIEbits   0x000f5d       data     extern E:\3.46\pic18-lt\cxx-framework\src\traditional\proc\p18f87j50.asm
                     UEIR   0x000f63       data     extern E:\3.46\pic18-lt\cxx-framework\src\traditional\proc\p18f87j50.asm
                 UEIRbits   0x000f63       data     extern E:\3.46\pic18-lt\cxx-framework\src\traditional\proc\p18f87j50.asm
                     UEP0   0x000f4c       data     extern E:\3.46\pic18-lt\cxx-framework\src\traditional\proc\p18f87j50.asm
                 UEP0bits   0x000f4c       data     extern E:\3.46\pic18-lt\cxx-framework\src\traditional\proc\p18f87j50.asm
                     UEP1   0x000f4d       data     extern E:\3.46\pic18-lt\cxx-framework\src\traditional\proc\p18f87j50.asm
                    UEP10   0x000f56       data     extern E:\3.46\pic18-lt\cxx-framework\src\traditional\proc\p18f87j50.asm
                UEP10bits   0x000f56       data     extern E:\3.46\pic18-lt\cxx-framework\src\traditional\proc\p18f87j50.asm
                    UEP11   0x000f57       data     extern E:\3.46\pic18-lt\cxx-framework\src\traditional\proc\p18f87j50.asm
                UEP11bits   0x000f57       data     extern E:\3.46\pic18-lt\cxx-framework\src\traditional\proc\p18f87j50.asm
                    UEP12   0x000f58       data     extern E:\3.46\pic18-lt\cxx-framework\src\traditional\proc\p18f87j50.asm
                UEP12bits   0x000f58       data     extern E:\3.46\pic18-lt\cxx-framework\src\traditional\proc\p18f87j50.asm
                    UEP13   0x000f59       data     extern E:\3.46\pic18-lt\cxx-framework\src\traditional\proc\p18f87j50.asm
                UEP13bits   0x000f59       data     extern E:\3.46\pic18-lt\cxx-framework\src\traditional\proc\p18f87j50.asm
                    UEP14   0x000f5a       data     extern E:\3.46\pic18-lt\cxx-framework\src\traditional\proc\p18f87j50.asm
                UEP14bits   0x000f5a       data     extern E:\3.46\pic18-lt\cxx-framework\src\traditional\proc\p18f87j50.asm
                    UEP15   0x000f5b       data     extern E:\3.46\pic18-lt\cxx-framework\src\traditional\proc\p18f87j50.asm
                UEP15bits   0x000f5b       data     extern E:\3.46\pic18-lt\cxx-framework\src\traditional\proc\p18f87j50.asm
                 UEP1bits   0x000f4d       data     extern E:\3.46\pic18-lt\cxx-framework\src\traditional\proc\p18f87j50.asm
                     UEP2   0x000f4e       data     extern E:\3.46\pic18-lt\cxx-framework\src\traditional\proc\p18f87j50.asm
                 UEP2bits   0x000f4e       data     extern E:\3.46\pic18-lt\cxx-framework\src\traditional\proc\p18f87j50.asm
                     UEP3   0x000f4f       data     extern E:\3.46\pic18-lt\cxx-framework\src\traditional\proc\p18f87j50.asm
                 UEP3bits   0x000f4f       data     extern E:\3.46\pic18-lt\cxx-framework\src\traditional\proc\p18f87j50.asm
                     UEP4   0x000f50       data     extern E:\3.46\pic18-lt\cxx-framework\src\traditional\proc\p18f87j50.asm
                 UEP4bits   0x000f50       data     extern E:\3.46\pic18-lt\cxx-framework\src\traditional\proc\p18f87j50.asm
                     UEP5   0x000f51       data     extern E:\3.46\pic18-lt\cxx-framework\src\traditional\proc\p18f87j50.asm
                 UEP5bits   0x000f51       data     extern E:\3.46\pic18-lt\cxx-framework\src\traditional\proc\p18f87j50.asm
                     UEP6   0x000f52       data     extern E:\3.46\pic18-lt\cxx-framework\src\traditional\proc\p18f87j50.asm
                 UEP6bits   0x000f52       data     extern E:\3.46\pic18-lt\cxx-framework\src\traditional\proc\p18f87j50.asm
                     UEP7   0x000f53       data     extern E:\3.46\pic18-lt\cxx-framework\src\traditional\proc\p18f87j50.asm
                 UEP7bits   0x000f53       data     extern E:\3.46\pic18-lt\cxx-framework\src\traditional\proc\p18f87j50.asm
                     UEP8   0x000f54       data     extern E:\3.46\pic18-lt\cxx-framework\src\traditional\proc\p18f87j50.asm
                 UEP8bits   0x000f54       data     extern E:\3.46\pic18-lt\cxx-framework\src\traditional\proc\p18f87j50.asm
                     UEP9   0x000f55       data     extern E:\3.46\pic18-lt\cxx-framework\src\traditional\proc\p18f87j50.asm
                 UEP9bits   0x000f55       data     extern E:\3.46\pic18-lt\cxx-framework\src\traditional\proc\p18f87j50.asm
                     UFRM   0x000f60       data     extern E:\3.46\pic18-lt\cxx-framework\src\traditional\proc\p18f87j50.asm
                    UFRMH   0x000f61       data     extern E:\3.46\pic18-lt\cxx-framework\src\traditional\proc\p18f87j50.asm
                UFRMHbits   0x000f61       data     extern E:\3.46\pic18-lt\cxx-framework\src\traditional\proc\p18f87j50.asm
                    UFRML   0x000f60       data     extern E:\3.46\pic18-lt\cxx-framework\src\traditional\proc\p18f87j50.asm
                UFRMLbits   0x000f60       data     extern E:\3.46\pic18-lt\cxx-framework\src\traditional\proc\p18f87j50.asm
                      UIE   0x000f5c       data     extern E:\3.46\pic18-lt\cxx-framework\src\traditional\proc\p18f87j50.asm
                  UIEbits   0x000f5c       data     extern E:\3.46\pic18-lt\cxx-framework\src\traditional\proc\p18f87j50.asm
                      UIR   0x000f62       data     extern E:\3.46\pic18-lt\cxx-framework\src\traditional\proc\p18f87j50.asm
                  UIRbits   0x000f62       data     extern E:\3.46\pic18-lt\cxx-framework\src\traditional\proc\p18f87j50.asm
                    USTAT   0x000f64       data     extern E:\3.46\pic18-lt\cxx-framework\src\traditional\proc\p18f87j50.asm
                USTATbits   0x000f64       data     extern E:\3.46\pic18-lt\cxx-framework\src\traditional\proc\p18f87j50.asm
                   WDTCON   0x000fc0       data     extern E:\3.46\pic18-lt\cxx-framework\src\traditional\proc\p18f87j50.asm
               WDTCONbits   0x000fc0       data     extern E:\3.46\pic18-lt\cxx-framework\src\traditional\proc\p18f87j50.asm
                     WREG   0x000fe8       data     extern E:\3.46\pic18-lt\cxx-framework\src\traditional\proc\p18f87j50.asm
             _OS_BestTask   0x000000       data     extern D:\Vl_prj\Solid_fuel_boiler(rev 2_0)\Software\src\OSA\osa.c
        _OS_Best_Priority   0x000004       data     extern D:\Vl_prj\Solid_fuel_boiler(rev 2_0)\Software\src\OSA\osa.c
              _OS_CurTask   0x00003d       data     extern D:\Vl_prj\Solid_fuel_boiler(rev 2_0)\Software\src\OSA\osa.c
                _OS_Flags   0x00003a       data     extern D:\Vl_prj\Solid_fuel_boiler(rev 2_0)\Software\src\OSA\osa.c
             _OS_LastTask   0x000002       data     extern D:\Vl_prj\Solid_fuel_boiler(rev 2_0)\Software\src\OSA\osa.c
                _OS_Tasks   0x000005       data     extern D:\Vl_prj\Solid_fuel_boiler(rev 2_0)\Software\src\OSA\kernel\system\osa_tasks.c
                 _OS_Temp   0x00003b       data     extern D:\Vl_prj\Solid_fuel_boiler(rev 2_0)\Software\src\OSA\osa.c
                _OS_TempH   0x00003c       data     extern D:\Vl_prj\Solid_fuel_boiler(rev 2_0)\Software\src\OSA\osa.c
                 __AARGB0   0x000027       data     extern E:\3.46\pic18-lt\cxx-framework\src\traditional\math\aarg.asm
                 __AARGB1   0x000026       data     extern E:\3.46\pic18-lt\cxx-framework\src\traditional\math\aarg.asm
                 __AARGB2   0x000025       data     extern E:\3.46\pic18-lt\cxx-framework\src\traditional\math\aarg.asm
                 __AARGB3   0x000024       data     extern E:\3.46\pic18-lt\cxx-framework\src\traditional\math\aarg.asm
                 __AARGB4   0x000023       data     extern E:\3.46\pic18-lt\cxx-framework\src\traditional\math\aarg.asm
                 __AARGB5   0x000022       data     extern E:\3.46\pic18-lt\cxx-framework\src\traditional\math\aarg.asm
                 __AARGB6   0x000021       data     extern E:\3.46\pic18-lt\cxx-framework\src\traditional\math\aarg.asm
                 __AARGB7   0x000020       data     extern E:\3.46\pic18-lt\cxx-framework\src\traditional\math\aarg.asm
                   __AEXP   0x000028       data     extern E:\3.46\pic18-lt\cxx-framework\src\traditional\math\aarg.asm
                 __BARGB0   0x00002c       data     extern E:\3.46\pic18-lt\cxx-framework\src\traditional\math\barg.asm
                 __BARGB1   0x00002b       data     extern E:\3.46\pic18-lt\cxx-framework\src\traditional\math\barg.asm
                 __BARGB2   0x00002a       data     extern E:\3.46\pic18-lt\cxx-framework\src\traditional\math\barg.asm
                 __BARGB3   0x000029       data     extern E:\3.46\pic18-lt\cxx-framework\src\traditional\math\barg.asm
                   __BEXP   0x00002d       data     extern E:\3.46\pic18-lt\cxx-framework\src\traditional\math\barg.asm
                __FPFLAGS   0x00001f       data     extern E:\3.46\pic18-lt\cxx-framework\src\traditional\math\cmath18.asm
            __FPFLAGSbits   0x00001f       data     extern E:\3.46\pic18-lt\cxx-framework\src\traditional\math\cmath18.asm
                  __REMB0   0x000023       data     extern E:\3.46\pic18-lt\cxx-framework\src\traditional\math\aarg.asm
                  __REMB1   0x000022       data     extern E:\3.46\pic18-lt\cxx-framework\src\traditional\math\aarg.asm
                  __REMB2   0x000021       data     extern E:\3.46\pic18-lt\cxx-framework\src\traditional\math\aarg.asm
                  __REMB3   0x000020       data     extern E:\3.46\pic18-lt\cxx-framework\src\traditional\math\aarg.asm
                   __TEMP   0x000031       data     extern E:\3.46\pic18-lt\cxx-framework\src\traditional\math\temparg.asm
                 __TEMPB0   0x000031       data     extern E:\3.46\pic18-lt\cxx-framework\src\traditional\math\temparg.asm
                 __TEMPB1   0x000030       data     extern E:\3.46\pic18-lt\cxx-framework\src\traditional\math\temparg.asm
                 __TEMPB2   0x00002f       data     extern E:\3.46\pic18-lt\cxx-framework\src\traditional\math\temparg.asm
                 __TEMPB3   0x00002e       data     extern E:\3.46\pic18-lt\cxx-framework\src\traditional\math\temparg.asm
                  __tmp_0   0x000032       data     static D:\Vl_prj\Solid_fuel_boiler(rev 2_0)\Software\src\EEPROMmemory\eeprom.c
                  __tmp_0   0x000032       data     static D:\Vl_prj\Solid_fuel_boiler(rev 2_0)\Software\src\Module_sound\module_sound.c
                  __tmp_0   0x000032       data     static D:\Vl_prj\Solid_fuel_boiler(rev 2_0)\Software\src\Module_management\module_management.c
                  __tmp_0   0x000032       data     static D:\Vl_prj\Solid_fuel_boiler(rev 2_0)\Software\src\Module_motor\module_motor.c
                  __tmp_0   0x000032       data     static D:\Vl_prj\Solid_fuel_boiler(rev 2_0)\Software\src\Module_indication\module_indication.c
                  __tmp_0   0x000032       data     static D:\Vl_prj\Solid_fuel_boiler(rev 2_0)\Software\src\Menu\menu.c
                  __tmp_0   0x000032       data     static D:\Vl_prj\Solid_fuel_boiler(rev 2_0)\Software\src\Module_analog_inputs\module_analog_inputs.c
                  __tmp_0   0x000032       data     static D:\Vl_prj\Solid_fuel_boiler(rev 2_0)\Software\src\Module_fan\module_fan.c
                  __tmp_0   0x000032       data     static D:\Vl_prj\Solid_fuel_boiler(rev 2_0)\Software\src\Module_logic_inputs\module_logic_inputs.c
                  __tmp_1   0x00003f       data     static D:\Vl_prj\Solid_fuel_boiler(rev 2_0)\Software\src\Interrupts\interrupts.c
              accel_state   0x000061       data     extern D:\Vl_prj\Solid_fuel_boiler(rev 2_0)\Software\src\Module_motor\module_motor.c
              after_pause   0x000090       data     static D:\Vl_prj\Solid_fuel_boiler(rev 2_0)\Software\src\Module_motor\module_motor.c
               blink_mode   0x0000ae       data     extern D:\Vl_prj\Solid_fuel_boiler(rev 2_0)\Software\src\Module_indication\module_indication.c
            burning_state   0x0000c4       data     extern D:\Vl_prj\Solid_fuel_boiler(rev 2_0)\Software\src\Module_management\module_management.c
       button_submergence   0x0000fc       data     extern D:\Vl_prj\Solid_fuel_boiler(rev 2_0)\Software\src\Module_sound\module_sound.c
                 cnt_duty   0x000060       data     extern D:\Vl_prj\Solid_fuel_boiler(rev 2_0)\Software\src\Module_motor\module_motor.c
     cnt_failure_backward   0x00008f       data     static D:\Vl_prj\Solid_fuel_boiler(rev 2_0)\Software\src\Module_motor\module_motor.c
      cnt_failure_forward   0x00008e       data     static D:\Vl_prj\Solid_fuel_boiler(rev 2_0)\Software\src\Module_motor\module_motor.c
          cnt_half_period   0x0000ec       data     static D:\Vl_prj\Solid_fuel_boiler(rev 2_0)\Software\src\Module_fan\module_fan.c
                 cnt_step   0x000069       data     extern D:\Vl_prj\Solid_fuel_boiler(rev 2_0)\Software\src\Module_motor\module_motor.c
        cnt_zero_crossing   0x000100       data     extern D:\Vl_prj\Solid_fuel_boiler(rev 2_0)\Software\src\Interrupts\interrupts.c
                  count_s   0x0000af       data     static D:\Vl_prj\Solid_fuel_boiler(rev 2_0)\Software\src\Module_indication\module_indication.c
                  counter   0x0000eb       data     static D:\Vl_prj\Solid_fuel_boiler(rev 2_0)\Software\src\Module_fan\module_fan.c
                     ctrl   0x000065       data     extern D:\Vl_prj\Solid_fuel_boiler(rev 2_0)\Software\src\Module_motor\module_motor.c
                 ctrl_fan   0x0000e0       data     extern D:\Vl_prj\Solid_fuel_boiler(rev 2_0)\Software\src\Module_fan\module_fan.c
             ctrl_shatter   0x000068       data     extern D:\Vl_prj\Solid_fuel_boiler(rev 2_0)\Software\src\Module_motor\module_motor.c
                curr_byte   0x0000f0       data     static E:\3.46\pic18-lt\cxx-framework\src\traditional\startup\c018i.c
               curr_entry   0x0000f2       data     static E:\3.46\pic18-lt\cxx-framework\src\traditional\startup\c018i.c
                 data_ptr   0x0000f4       data     static E:\3.46\pic18-lt\cxx-framework\src\traditional\startup\c018i.c
            delta_t_accel   0x000f3a       data     static D:\Vl_prj\Solid_fuel_boiler(rev 2_0)\Software\src\Module_motor\module_motor.c
                direction   0x000066       data     extern D:\Vl_prj\Solid_fuel_boiler(rev 2_0)\Software\src\Module_motor\module_motor.c
         fan_param_offset   0x0000ce       data     extern D:\Vl_prj\Solid_fuel_boiler(rev 2_0)\Software\src\Module_management\module_management.c
            index_channel   0x0000c0       data     static D:\Vl_prj\Solid_fuel_boiler(rev 2_0)\Software\src\Module_analog_inputs\module_analog_inputs.c
is_impulse_agitator_sensor   0x000103       data     extern D:\Vl_prj\Solid_fuel_boiler(rev 2_0)\Software\src\Interrupts\interrupts.c
         is_motor_failure   0x00008d       data     static D:\Vl_prj\Solid_fuel_boiler(rev 2_0)\Software\src\Module_motor\module_motor.c
            is_zero_cross   0x000102       data     extern D:\Vl_prj\Solid_fuel_boiler(rev 2_0)\Software\src\Interrupts\interrupts.c
                    level   0x000f34       data     extern D:\Vl_prj\Solid_fuel_boiler(rev 2_0)\Software\src\Module_management\module_management.c
                level_fan   0x0000e3       data     extern D:\Vl_prj\Solid_fuel_boiler(rev 2_0)\Software\src\Module_fan\module_fan.c
                  ls_type   0x000f38       data     static D:\Vl_prj\Solid_fuel_boiler(rev 2_0)\Software\src\Module_motor\module_motor.c
                num_motor   0x000067       data     extern D:\Vl_prj\Solid_fuel_boiler(rev 2_0)\Software\src\Module_motor\module_motor.c
                pFanLevel   0x0000cf       data     extern D:\Vl_prj\Solid_fuel_boiler(rev 2_0)\Software\src\Module_management\module_management.c
         period_load_fuel   0x000f30       data     extern D:\Vl_prj\Solid_fuel_boiler(rev 2_0)\Software\src\Module_management\module_management.c
              phase_cycle   0x0000cd       data     extern D:\Vl_prj\Solid_fuel_boiler(rev 2_0)\Software\src\Module_management\module_management.c
                     prom   0x0000ed       data     static E:\3.46\pic18-lt\cxx-framework\src\traditional\startup\c018i.c
                ptr_to_ls   0x0000db       data     extern D:\Vl_prj\Solid_fuel_boiler(rev 2_0)\Software\src\Module_logic_inputs\module_logic_inputs.c
        ptr_to_motor_pins   0x00008b       data     extern D:\Vl_prj\Solid_fuel_boiler(rev 2_0)\Software\src\Module_motor\module_motor.c
     quantity_steps_accel   0x000f39       data     static D:\Vl_prj\Solid_fuel_boiler(rev 2_0)\Software\src\Module_motor\module_motor.c
           saved_cnt_duty   0x000062       data     extern D:\Vl_prj\Solid_fuel_boiler(rev 2_0)\Software\src\Module_motor\module_motor.c
  saved_temperature_water   0x000f00       data     extern D:\Vl_prj\Solid_fuel_boiler(rev 2_0)\Software\src\Module_management\module_management.c
          shatter_reverse   0x000091       data     static D:\Vl_prj\Solid_fuel_boiler(rev 2_0)\Software\src\Module_motor\module_motor.c
          state_accel_fan   0x0000cc       data     extern D:\Vl_prj\Solid_fuel_boiler(rev 2_0)\Software\src\Module_management\module_management.c
               step_brake   0x000092       data     static D:\Vl_prj\Solid_fuel_boiler(rev 2_0)\Software\src\Module_motor\module_motor.c
           step_force_fan   0x0000e4       data     extern D:\Vl_prj\Solid_fuel_boiler(rev 2_0)\Software\src\Module_fan\module_fan.c
               temp_index   0x000f37       data     extern D:\Vl_prj\Solid_fuel_boiler(rev 2_0)\Software\src\Module_motor\module_motor.c
            temp_start_ls   0x000074       data     extern D:\Vl_prj\Solid_fuel_boiler(rev 2_0)\Software\src\Module_motor\module_motor.c
      temper_water_or_gas   0x000f3e       data     extern D:\Vl_prj\Solid_fuel_boiler(rev 2_0)\Software\src\Menu\menu.c
               time_M_Fan   0x0000e7       data     extern D:\Vl_prj\Solid_fuel_boiler(rev 2_0)\Software\src\Module_fan\module_fan.c
               time_M_Ind   0x0000a4       data     extern D:\Vl_prj\Solid_fuel_boiler(rev 2_0)\Software\src\Module_indication\module_indication.c
             time_M_Motor   0x000077       data     extern D:\Vl_prj\Solid_fuel_boiler(rev 2_0)\Software\src\Module_motor\module_motor.c
             time_M_Sound   0x0000f7       data     extern D:\Vl_prj\Solid_fuel_boiler(rev 2_0)\Software\src\Module_sound\module_sound.c
                time_step   0x000f35       data     static D:\Vl_prj\Solid_fuel_boiler(rev 2_0)\Software\src\Module_management\module_management.c
                  timeout   0x000f32       data     extern D:\Vl_prj\Solid_fuel_boiler(rev 2_0)\Software\src\Module_management\module_management.c
timeout_change_temperature_water   0x0000c9       data     extern D:\Vl_prj\Solid_fuel_boiler(rev 2_0)\Software\src\Module_management\module_management.c
 timeout_check_gas_sensor   0x0000c7       data     extern D:\Vl_prj\Solid_fuel_boiler(rev 2_0)\Software\src\Module_management\module_management.c
      timeout_supply_fuel   0x0000c5       data     extern D:\Vl_prj\Solid_fuel_boiler(rev 2_0)\Software\src\Module_management\module_management.c
          timer_force_fan   0x0000e5       data     extern D:\Vl_prj\Solid_fuel_boiler(rev 2_0)\Software\src\Module_fan\module_fan.c



                              Symbols - Sorted by Address
                     Name    Address   Location    Storage File                     
                ---------  ---------  ---------  --------- ---------                
                   _entry   0x000000    program     extern E:\3.46\pic18-lt\cxx-framework\src\traditional\startup\c018i.c
       ___return_lbl00000   0x000004    program     static                          
M_fan_time_accum_zero_cross   0x000006    program     extern D:\Vl_prj\Solid_fuel_boiler(rev 2_0)\Software\src\Module_fan\module_fan.c
      InterruptVectorHigh   0x000008    program     extern D:\Vl_prj\Solid_fuel_boiler(rev 2_0)\Software\src\Interrupts\interrupts.c
       ___return_lbl00000   0x00000c    program     static                          
 M_Motor_clear_parameters   0x00007c    program     extern D:\Vl_prj\Solid_fuel_boiler(rev 2_0)\Software\src\Module_motor\module_motor.c
M_Motor_check_ls_after_begin_start   0x00008c    program     extern D:\Vl_prj\Solid_fuel_boiler(rev 2_0)\Software\src\Module_motor\module_motor.c
M_motor_forming_direction_question_LS   0x0000e0    program     extern D:\Vl_prj\Solid_fuel_boiler(rev 2_0)\Software\src\Module_motor\module_motor.c
M_Motor_clear_false_state_LS   0x000104    program     extern D:\Vl_prj\Solid_fuel_boiler(rev 2_0)\Software\src\Module_motor\module_motor.c
   M_Motor_check_false_LS   0x00011c    program     extern D:\Vl_prj\Solid_fuel_boiler(rev 2_0)\Software\src\Module_motor\module_motor.c
M_Motor_get_false_state_LS   0x000134    program     extern D:\Vl_prj\Solid_fuel_boiler(rev 2_0)\Software\src\Module_motor\module_motor.c
        M_Motor_set_state   0x000142    program     extern D:\Vl_prj\Solid_fuel_boiler(rev 2_0)\Software\src\Module_motor\module_motor.c
    M_Motor_get_direction   0x00014e    program     extern D:\Vl_prj\Solid_fuel_boiler(rev 2_0)\Software\src\Module_motor\module_motor.c
         M_Motor_set_work   0x000154    program     extern D:\Vl_prj\Solid_fuel_boiler(rev 2_0)\Software\src\Module_motor\module_motor.c
         M_Motor_get_work   0x000160    program     extern D:\Vl_prj\Solid_fuel_boiler(rev 2_0)\Software\src\Module_motor\module_motor.c
        M_Motor_get_state   0x000166    program     extern D:\Vl_prj\Solid_fuel_boiler(rev 2_0)\Software\src\Module_motor\module_motor.c
 M_Motor_set_ctrl_shatter   0x00016c    program     extern D:\Vl_prj\Solid_fuel_boiler(rev 2_0)\Software\src\Module_motor\module_motor.c
 M_Motor_get_ctrl_shatter   0x000178    program     extern D:\Vl_prj\Solid_fuel_boiler(rev 2_0)\Software\src\Module_motor\module_motor.c
M_Motor_get_state_failure   0x00017e    program     extern D:\Vl_prj\Solid_fuel_boiler(rev 2_0)\Software\src\Module_motor\module_motor.c
M_Motor_clear_struct_failure_motor   0x000198    program     extern D:\Vl_prj\Solid_fuel_boiler(rev 2_0)\Software\src\Module_motor\module_motor.c
   M_Motor_get_prev_state   0x0001e4    program     extern D:\Vl_prj\Solid_fuel_boiler(rev 2_0)\Software\src\Module_motor\module_motor.c
           M_Motor_rotate   0x0001ea    program     extern D:\Vl_prj\Solid_fuel_boiler(rev 2_0)\Software\src\Module_motor\module_motor.c
M_Motor_get_ptr_to_motor_pins   0x0003d6    program     extern D:\Vl_prj\Solid_fuel_boiler(rev 2_0)\Software\src\Module_motor\module_motor.c
      M_Motor_check_motor   0x0003e0    program     extern D:\Vl_prj\Solid_fuel_boiler(rev 2_0)\Software\src\Module_motor\module_motor.c
              M_Motor_Run   0x000448    program     extern D:\Vl_prj\Solid_fuel_boiler(rev 2_0)\Software\src\Module_motor\module_motor.c
M_Motor_clear_accel_state   0x0007dc    program     extern D:\Vl_prj\Solid_fuel_boiler(rev 2_0)\Software\src\Module_motor\module_motor.c
        M_Motor_is_worked   0x0007e6    program     extern D:\Vl_prj\Solid_fuel_boiler(rev 2_0)\Software\src\Module_motor\module_motor.c
         M_Motor_is_brake   0x000800    program     extern D:\Vl_prj\Solid_fuel_boiler(rev 2_0)\Software\src\Module_motor\module_motor.c
       M_Motor_is_stopped   0x0008a4    program     extern D:\Vl_prj\Solid_fuel_boiler(rev 2_0)\Software\src\Module_motor\module_motor.c
    M_Motor_Timer2_change   0x0008be    program     extern D:\Vl_prj\Solid_fuel_boiler(rev 2_0)\Software\src\Module_motor\module_motor.c
            M_Motor_accel   0x0008cc    program     extern D:\Vl_prj\Solid_fuel_boiler(rev 2_0)\Software\src\Module_motor\module_motor.c
M_Motor_software_PWM_interrrupt   0x0009de    program     extern D:\Vl_prj\Solid_fuel_boiler(rev 2_0)\Software\src\Module_motor\module_motor.c
                   __pa_0   0x000a3c    program     static D:\Vl_prj\Solid_fuel_boiler(rev 2_0)\Software\src\Module_motor\module_motor.c
                   __pa_1   0x000a44    program     static D:\Vl_prj\Solid_fuel_boiler(rev 2_0)\Software\src\Module_motor\module_motor.c
                   __pa_2   0x000a52    program     static D:\Vl_prj\Solid_fuel_boiler(rev 2_0)\Software\src\Module_motor\module_motor.c
                   __pa_3   0x000a64    program     static D:\Vl_prj\Solid_fuel_boiler(rev 2_0)\Software\src\Module_motor\module_motor.c
                   __pa_4   0x000a7a    program     static D:\Vl_prj\Solid_fuel_boiler(rev 2_0)\Software\src\Module_motor\module_motor.c
                   __pa_5   0x000a8a    program     static D:\Vl_prj\Solid_fuel_boiler(rev 2_0)\Software\src\Module_motor\module_motor.c
              __tmplbl_19   0x000a94    program     static                          
              __tmplbl_18   0x000a94    program     static                          
              __tmplbl_17   0x000a94    program     static                          
              __tmplbl_16   0x000a94    program     static                          
              __tmplbl_15   0x000a94    program     static                          
              __tmplbl_14   0x000a94    program     static                          
              __tmplbl_13   0x000a94    program     static                          
              __tmplbl_12   0x000a94    program     static                          
                   __pa_6   0x000a94    program     static D:\Vl_prj\Solid_fuel_boiler(rev 2_0)\Software\src\Module_motor\module_motor.c
              __tmplbl_20   0x000a94    program     static                          
                   __pa_7   0x000a9c    program     static D:\Vl_prj\Solid_fuel_boiler(rev 2_0)\Software\src\Module_motor\module_motor.c
                   __pa_8   0x000aa8    program     static D:\Vl_prj\Solid_fuel_boiler(rev 2_0)\Software\src\Module_motor\module_motor.c
                   __pa_9   0x000abc    program     static D:\Vl_prj\Solid_fuel_boiler(rev 2_0)\Software\src\Module_motor\module_motor.c
                  __pa_10   0x000acc    program     static D:\Vl_prj\Solid_fuel_boiler(rev 2_0)\Software\src\Module_motor\module_motor.c
                  __pa_11   0x000ad4    program     static D:\Vl_prj\Solid_fuel_boiler(rev 2_0)\Software\src\Module_motor\module_motor.c
                  __pa_12   0x000af6    program     static D:\Vl_prj\Solid_fuel_boiler(rev 2_0)\Software\src\Module_motor\module_motor.c
                  __pa_13   0x000b00    program     static D:\Vl_prj\Solid_fuel_boiler(rev 2_0)\Software\src\Module_motor\module_motor.c
                  __pa_14   0x000b1a    program     static D:\Vl_prj\Solid_fuel_boiler(rev 2_0)\Software\src\Module_motor\module_motor.c
                  __pa_15   0x000b28    program     static D:\Vl_prj\Solid_fuel_boiler(rev 2_0)\Software\src\Module_motor\module_motor.c
                  __pa_16   0x000b36    program     static D:\Vl_prj\Solid_fuel_boiler(rev 2_0)\Software\src\Module_motor\module_motor.c
                  __pa_17   0x000b40    program     static D:\Vl_prj\Solid_fuel_boiler(rev 2_0)\Software\src\Module_motor\module_motor.c
                  __pa_18   0x000b48    program     static D:\Vl_prj\Solid_fuel_boiler(rev 2_0)\Software\src\Module_motor\module_motor.c
                  __pa_19   0x000b50    program     static D:\Vl_prj\Solid_fuel_boiler(rev 2_0)\Software\src\Module_motor\module_motor.c
                  __pa_20   0x000b62    program     static D:\Vl_prj\Solid_fuel_boiler(rev 2_0)\Software\src\Module_motor\module_motor.c
                  __pa_21   0x000b70    program     static D:\Vl_prj\Solid_fuel_boiler(rev 2_0)\Software\src\Module_motor\module_motor.c
                  __pa_22   0x000b76    program     static D:\Vl_prj\Solid_fuel_boiler(rev 2_0)\Software\src\Module_motor\module_motor.c
                  __pa_23   0x000b82    program     static D:\Vl_prj\Solid_fuel_boiler(rev 2_0)\Software\src\Module_motor\module_motor.c
                  __pa_24   0x000b8a    program     static D:\Vl_prj\Solid_fuel_boiler(rev 2_0)\Software\src\Module_motor\module_motor.c
                  __pa_25   0x000b94    program     static D:\Vl_prj\Solid_fuel_boiler(rev 2_0)\Software\src\Module_motor\module_motor.c
                  __pa_26   0x000b9e    program     static D:\Vl_prj\Solid_fuel_boiler(rev 2_0)\Software\src\Module_motor\module_motor.c
                  __pa_27   0x000bae    program     static D:\Vl_prj\Solid_fuel_boiler(rev 2_0)\Software\src\Module_motor\module_motor.c
                  __pa_28   0x000bb8    program     static D:\Vl_prj\Solid_fuel_boiler(rev 2_0)\Software\src\Module_motor\module_motor.c
                  __pa_29   0x000bc6    program     static D:\Vl_prj\Solid_fuel_boiler(rev 2_0)\Software\src\Module_motor\module_motor.c
                  __pa_30   0x000bd2    program     static D:\Vl_prj\Solid_fuel_boiler(rev 2_0)\Software\src\Module_motor\module_motor.c
                  __pa_31   0x000be0    program     static D:\Vl_prj\Solid_fuel_boiler(rev 2_0)\Software\src\Module_motor\module_motor.c
                  __pa_32   0x000be8    program     static D:\Vl_prj\Solid_fuel_boiler(rev 2_0)\Software\src\Module_motor\module_motor.c
                  __pa_33   0x000bf2    program     static D:\Vl_prj\Solid_fuel_boiler(rev 2_0)\Software\src\Module_motor\module_motor.c
                  __pa_34   0x000bfc    program     static D:\Vl_prj\Solid_fuel_boiler(rev 2_0)\Software\src\Module_motor\module_motor.c
                  __pa_35   0x000c06    program     static D:\Vl_prj\Solid_fuel_boiler(rev 2_0)\Software\src\Module_motor\module_motor.c
                  __pa_36   0x000c0e    program     static D:\Vl_prj\Solid_fuel_boiler(rev 2_0)\Software\src\Module_motor\module_motor.c
                  __pa_37   0x000c18    program     static D:\Vl_prj\Solid_fuel_boiler(rev 2_0)\Software\src\Module_motor\module_motor.c
                  __pa_38   0x000c22    program     static D:\Vl_prj\Solid_fuel_boiler(rev 2_0)\Software\src\Module_motor\module_motor.c
                  __pa_39   0x000c28    program     static D:\Vl_prj\Solid_fuel_boiler(rev 2_0)\Software\src\Module_motor\module_motor.c
                  __pa_40   0x000c32    program     static D:\Vl_prj\Solid_fuel_boiler(rev 2_0)\Software\src\Module_motor\module_motor.c
                  __pa_41   0x000c38    program     static D:\Vl_prj\Solid_fuel_boiler(rev 2_0)\Software\src\Module_motor\module_motor.c
                  __pa_42   0x000c40    program     static D:\Vl_prj\Solid_fuel_boiler(rev 2_0)\Software\src\Module_motor\module_motor.c
                  __pa_43   0x000c48    program     static D:\Vl_prj\Solid_fuel_boiler(rev 2_0)\Software\src\Module_motor\module_motor.c
                  __pa_44   0x000c52    program     static D:\Vl_prj\Solid_fuel_boiler(rev 2_0)\Software\src\Module_motor\module_motor.c
                  __pa_45   0x000c5a    program     static D:\Vl_prj\Solid_fuel_boiler(rev 2_0)\Software\src\Module_motor\module_motor.c
                  __pa_46   0x000c64    program     static D:\Vl_prj\Solid_fuel_boiler(rev 2_0)\Software\src\Module_motor\module_motor.c
                  __pa_47   0x000c6e    program     static D:\Vl_prj\Solid_fuel_boiler(rev 2_0)\Software\src\Module_motor\module_motor.c
                  __pa_48   0x000c78    program     static D:\Vl_prj\Solid_fuel_boiler(rev 2_0)\Software\src\Module_motor\module_motor.c
                  __pa_49   0x000c7e    program     static D:\Vl_prj\Solid_fuel_boiler(rev 2_0)\Software\src\Module_motor\module_motor.c
                  __pa_50   0x000c86    program     static D:\Vl_prj\Solid_fuel_boiler(rev 2_0)\Software\src\Module_motor\module_motor.c
                  __pa_51   0x000c94    program     static D:\Vl_prj\Solid_fuel_boiler(rev 2_0)\Software\src\Module_motor\module_motor.c
                  __pa_52   0x000ca2    program     static D:\Vl_prj\Solid_fuel_boiler(rev 2_0)\Software\src\Module_motor\module_motor.c
                  __pa_53   0x000caa    program     static D:\Vl_prj\Solid_fuel_boiler(rev 2_0)\Software\src\Module_motor\module_motor.c
M_Mngm_get_fanParamOffset   0x000cb2    program     extern D:\Vl_prj\Solid_fuel_boiler(rev 2_0)\Software\src\Module_management\module_management.c
     M_Mngm_get_pFanLevel   0x000cb8    program     extern D:\Vl_prj\Solid_fuel_boiler(rev 2_0)\Software\src\Module_management\module_management.c
   M_Mngm_get_phase_cycle   0x000cc2    program     extern D:\Vl_prj\Solid_fuel_boiler(rev 2_0)\Software\src\Module_management\module_management.c
M_Mngm_check_change_temperature_water   0x000cc8    program     extern D:\Vl_prj\Solid_fuel_boiler(rev 2_0)\Software\src\Module_management\module_management.c
M_Mngm_set_saved_temperature_water   0x000d16    program     extern D:\Vl_prj\Solid_fuel_boiler(rev 2_0)\Software\src\Module_management\module_management.c
    M_Mngm_clear_timeouts   0x000d1e    program     extern D:\Vl_prj\Solid_fuel_boiler(rev 2_0)\Software\src\Module_management\module_management.c
 M_Mngm_get_burning_state   0x000d36    program     extern D:\Vl_prj\Solid_fuel_boiler(rev 2_0)\Software\src\Module_management\module_management.c
 M_Mngm_set_burning_state   0x000d3c    program     extern D:\Vl_prj\Solid_fuel_boiler(rev 2_0)\Software\src\Module_management\module_management.c
M_Mngm_Get_parameters_buffer   0x000d44    program     extern D:\Vl_prj\Solid_fuel_boiler(rev 2_0)\Software\src\Module_management\module_management.c
         M_Mngm_Set_state   0x000d52    program     extern D:\Vl_prj\Solid_fuel_boiler(rev 2_0)\Software\src\Module_management\module_management.c
M_Mngm_Get_previous_state   0x000d5a    program     extern D:\Vl_prj\Solid_fuel_boiler(rev 2_0)\Software\src\Module_management\module_management.c
         M_Mngm_Get_state   0x000d60    program     extern D:\Vl_prj\Solid_fuel_boiler(rev 2_0)\Software\src\Module_management\module_management.c
  M_Mngm_Get_Code_Failure   0x000d66    program     extern D:\Vl_prj\Solid_fuel_boiler(rev 2_0)\Software\src\Module_management\module_management.c
  M_Mngm_Set_Code_Failure   0x000d6c    program     extern D:\Vl_prj\Solid_fuel_boiler(rev 2_0)\Software\src\Module_management\module_management.c
 M_Mngm_Set_state_draught   0x000d74    program     extern D:\Vl_prj\Solid_fuel_boiler(rev 2_0)\Software\src\Module_management\module_management.c
M_Mngm_check_draught_failure   0x000d7c    program     extern D:\Vl_prj\Solid_fuel_boiler(rev 2_0)\Software\src\Module_management\module_management.c
     M_Mngm_Check_Failure   0x000dba    program     extern D:\Vl_prj\Solid_fuel_boiler(rev 2_0)\Software\src\Module_management\module_management.c
               M_Mngm_Run   0x000eac    program     extern D:\Vl_prj\Solid_fuel_boiler(rev 2_0)\Software\src\Module_management\module_management.c
     M_Mngm_need_to_pause   0x000f02    program     extern D:\Vl_prj\Solid_fuel_boiler(rev 2_0)\Software\src\Module_management\module_management.c
           M_Mngm_waiting   0x000f26    program     extern D:\Vl_prj\Solid_fuel_boiler(rev 2_0)\Software\src\Module_management\module_management.c
       M_Mngm_fuel_supply   0x000f38    program     extern D:\Vl_prj\Solid_fuel_boiler(rev 2_0)\Software\src\Module_management\module_management.c
           M_Mngm_burning   0x000f78    program     extern D:\Vl_prj\Solid_fuel_boiler(rev 2_0)\Software\src\Module_management\module_management.c
             M_Mngm_pause   0x0010cc    program     extern D:\Vl_prj\Solid_fuel_boiler(rev 2_0)\Software\src\Module_management\module_management.c
     M_Mngm_clean_chimney   0x0010e4    program     extern D:\Vl_prj\Solid_fuel_boiler(rev 2_0)\Software\src\Module_management\module_management.c
           M_Mngm_failure   0x0010f0    program     extern D:\Vl_prj\Solid_fuel_boiler(rev 2_0)\Software\src\Module_management\module_management.c
   M_Mngm_clear_accel_fan   0x0010fc    program     extern D:\Vl_prj\Solid_fuel_boiler(rev 2_0)\Software\src\Module_management\module_management.c
 M_Mngm_clear_cyclic_mode   0x001108    program     extern D:\Vl_prj\Solid_fuel_boiler(rev 2_0)\Software\src\Module_management\module_management.c
         M_Mngm_accel_fan   0x001114    program     extern D:\Vl_prj\Solid_fuel_boiler(rev 2_0)\Software\src\Module_management\module_management.c
       M_Mngm_cyclic_mode   0x0011e4    program     extern D:\Vl_prj\Solid_fuel_boiler(rev 2_0)\Software\src\Module_management\module_management.c
                   __pa_0   0x0012a6    program     static D:\Vl_prj\Solid_fuel_boiler(rev 2_0)\Software\src\Module_management\module_management.c
                   __pa_1   0x0012b8    program     static D:\Vl_prj\Solid_fuel_boiler(rev 2_0)\Software\src\Module_management\module_management.c
                   __pa_2   0x0012d2    program     static D:\Vl_prj\Solid_fuel_boiler(rev 2_0)\Software\src\Module_management\module_management.c
                   __pa_3   0x0012dc    program     static D:\Vl_prj\Solid_fuel_boiler(rev 2_0)\Software\src\Module_management\module_management.c
                   __pa_4   0x0012e6    program     static D:\Vl_prj\Solid_fuel_boiler(rev 2_0)\Software\src\Module_management\module_management.c
                   __pa_5   0x001300    program     static D:\Vl_prj\Solid_fuel_boiler(rev 2_0)\Software\src\Module_management\module_management.c
                   __pa_6   0x001308    program     static D:\Vl_prj\Solid_fuel_boiler(rev 2_0)\Software\src\Module_management\module_management.c
                   __pa_7   0x001310    program     static D:\Vl_prj\Solid_fuel_boiler(rev 2_0)\Software\src\Module_management\module_management.c
                   __pa_8   0x00131a    program     static D:\Vl_prj\Solid_fuel_boiler(rev 2_0)\Software\src\Module_management\module_management.c
                   __pa_9   0x001338    program     static D:\Vl_prj\Solid_fuel_boiler(rev 2_0)\Software\src\Module_management\module_management.c
                  __pa_10   0x00134a    program     static D:\Vl_prj\Solid_fuel_boiler(rev 2_0)\Software\src\Module_management\module_management.c
                  __pa_11   0x001366    program     static D:\Vl_prj\Solid_fuel_boiler(rev 2_0)\Software\src\Module_management\module_management.c
                  __pa_12   0x001372    program     static D:\Vl_prj\Solid_fuel_boiler(rev 2_0)\Software\src\Module_management\module_management.c
                  __pa_13   0x00137c    program     static D:\Vl_prj\Solid_fuel_boiler(rev 2_0)\Software\src\Module_management\module_management.c
                  __pa_14   0x001382    program     static D:\Vl_prj\Solid_fuel_boiler(rev 2_0)\Software\src\Module_management\module_management.c
                  __pa_15   0x00138c    program     static D:\Vl_prj\Solid_fuel_boiler(rev 2_0)\Software\src\Module_management\module_management.c
                  __pa_16   0x001396    program     static D:\Vl_prj\Solid_fuel_boiler(rev 2_0)\Software\src\Module_management\module_management.c
                  __pa_17   0x0013a0    program     static D:\Vl_prj\Solid_fuel_boiler(rev 2_0)\Software\src\Module_management\module_management.c
                  __pa_18   0x0013a8    program     static D:\Vl_prj\Solid_fuel_boiler(rev 2_0)\Software\src\Module_management\module_management.c
                  __pa_19   0x0013b2    program     static D:\Vl_prj\Solid_fuel_boiler(rev 2_0)\Software\src\Module_management\module_management.c
                  __pa_20   0x0013c6    program     static D:\Vl_prj\Solid_fuel_boiler(rev 2_0)\Software\src\Module_management\module_management.c
                  __pa_21   0x0013d6    program     static D:\Vl_prj\Solid_fuel_boiler(rev 2_0)\Software\src\Module_management\module_management.c
                  __pa_22   0x0013e0    program     static D:\Vl_prj\Solid_fuel_boiler(rev 2_0)\Software\src\Module_management\module_management.c
                  __pa_23   0x0013ea    program     static D:\Vl_prj\Solid_fuel_boiler(rev 2_0)\Software\src\Module_management\module_management.c
                  __pa_24   0x0013f4    program     static D:\Vl_prj\Solid_fuel_boiler(rev 2_0)\Software\src\Module_management\module_management.c
                  __pa_25   0x0013fa    program     static D:\Vl_prj\Solid_fuel_boiler(rev 2_0)\Software\src\Module_management\module_management.c
                  __pa_26   0x001402    program     static D:\Vl_prj\Solid_fuel_boiler(rev 2_0)\Software\src\Module_management\module_management.c
                  __pa_27   0x00140a    program     static D:\Vl_prj\Solid_fuel_boiler(rev 2_0)\Software\src\Module_management\module_management.c
     M_Ind_Set_blink_mode   0x001410    program     extern D:\Vl_prj\Solid_fuel_boiler(rev 2_0)\Software\src\Module_indication\module_indication.c
       M_Ind_Get_Ind_data   0x001418    program     extern D:\Vl_prj\Solid_fuel_boiler(rev 2_0)\Software\src\Module_indication\module_indication.c
 M_Ind_Get_Previous_State   0x001426    program     extern D:\Vl_prj\Solid_fuel_boiler(rev 2_0)\Software\src\Module_indication\module_indication.c
 M_Ind_Set_Previous_State   0x00142c    program     extern D:\Vl_prj\Solid_fuel_boiler(rev 2_0)\Software\src\Module_indication\module_indication.c
          M_Ind_Set_state   0x001434    program     extern D:\Vl_prj\Solid_fuel_boiler(rev 2_0)\Software\src\Module_indication\module_indication.c
          M_Ind_Get_state   0x00143c    program     extern D:\Vl_prj\Solid_fuel_boiler(rev 2_0)\Software\src\Module_indication\module_indication.c
              SPI_Wr_Byte   0x001442    program     extern D:\Vl_prj\Solid_fuel_boiler(rev 2_0)\Software\src\Module_indication\module_indication.c
      M_Ind_7_Segment_Out   0x001456    program     extern D:\Vl_prj\Solid_fuel_boiler(rev 2_0)\Software\src\Module_indication\module_indication.c
            M_Ind_bin2dec   0x0014ac    program     extern D:\Vl_prj\Solid_fuel_boiler(rev 2_0)\Software\src\Module_indication\module_indication.c
       M_Ind_led_fan_mode   0x00157c    program     extern D:\Vl_prj\Solid_fuel_boiler(rev 2_0)\Software\src\Module_indication\module_indication.c
                M_Ind_Run   0x0015c0    program     extern D:\Vl_prj\Solid_fuel_boiler(rev 2_0)\Software\src\Module_indication\module_indication.c
          M_Ind_view_text   0x001702    program     extern D:\Vl_prj\Solid_fuel_boiler(rev 2_0)\Software\src\Module_indication\module_indication.c
       M_Ind_view_failure   0x001732    program     extern D:\Vl_prj\Solid_fuel_boiler(rev 2_0)\Software\src\Module_indication\module_indication.c
     M_Ind_blinking_7segm   0x00174c    program     extern D:\Vl_prj\Solid_fuel_boiler(rev 2_0)\Software\src\Module_indication\module_indication.c
M_Ind_view_temperature_or_fan_level_setup   0x0017a6    program     extern D:\Vl_prj\Solid_fuel_boiler(rev 2_0)\Software\src\Module_indication\module_indication.c
    M_Ind_setTimeAutoExit   0x0017d0    program     extern D:\Vl_prj\Solid_fuel_boiler(rev 2_0)\Software\src\Module_indication\module_indication.c
      M_Ind_TimerAutoExit   0x0017dc    program     extern D:\Vl_prj\Solid_fuel_boiler(rev 2_0)\Software\src\Module_indication\module_indication.c
 M_Ind_view_num_page_menu   0x001828    program     extern D:\Vl_prj\Solid_fuel_boiler(rev 2_0)\Software\src\Module_indication\module_indication.c
M_Ind_view_parameter_menu   0x001846    program     extern D:\Vl_prj\Solid_fuel_boiler(rev 2_0)\Software\src\Module_indication\module_indication.c
   M_Ind_temperature_real   0x001886    program     extern D:\Vl_prj\Solid_fuel_boiler(rev 2_0)\Software\src\Module_indication\module_indication.c
    M_Ind_View_SW_version   0x0018d8    program     extern D:\Vl_prj\Solid_fuel_boiler(rev 2_0)\Software\src\Module_indication\module_indication.c
       M_Ind_LED_blinking   0x00191c    program     extern D:\Vl_prj\Solid_fuel_boiler(rev 2_0)\Software\src\Module_indication\module_indication.c
                   __pa_0   0x0019b8    program     static D:\Vl_prj\Solid_fuel_boiler(rev 2_0)\Software\src\Module_indication\module_indication.c
                   __pa_1   0x0019c8    program     static D:\Vl_prj\Solid_fuel_boiler(rev 2_0)\Software\src\Module_indication\module_indication.c
                   __pa_2   0x0019d4    program     static D:\Vl_prj\Solid_fuel_boiler(rev 2_0)\Software\src\Module_indication\module_indication.c
                   __pa_3   0x0019dc    program     static D:\Vl_prj\Solid_fuel_boiler(rev 2_0)\Software\src\Module_indication\module_indication.c
                   __pa_4   0x0019e6    program     static D:\Vl_prj\Solid_fuel_boiler(rev 2_0)\Software\src\Module_indication\module_indication.c
                   __pa_5   0x0019f0    program     static D:\Vl_prj\Solid_fuel_boiler(rev 2_0)\Software\src\Module_indication\module_indication.c
                   __pa_6   0x001a12    program     static D:\Vl_prj\Solid_fuel_boiler(rev 2_0)\Software\src\Module_indication\module_indication.c
                   __pa_7   0x001a1a    program     static D:\Vl_prj\Solid_fuel_boiler(rev 2_0)\Software\src\Module_indication\module_indication.c
                   __pa_8   0x001a24    program     static D:\Vl_prj\Solid_fuel_boiler(rev 2_0)\Software\src\Module_indication\module_indication.c
                   __pa_9   0x001a32    program     static D:\Vl_prj\Solid_fuel_boiler(rev 2_0)\Software\src\Module_indication\module_indication.c
                  __pa_10   0x001a40    program     static D:\Vl_prj\Solid_fuel_boiler(rev 2_0)\Software\src\Module_indication\module_indication.c
                  __pa_11   0x001a4c    program     static D:\Vl_prj\Solid_fuel_boiler(rev 2_0)\Software\src\Module_indication\module_indication.c
                  __pa_12   0x001a5c    program     static D:\Vl_prj\Solid_fuel_boiler(rev 2_0)\Software\src\Module_indication\module_indication.c
                  __pa_13   0x001a6a    program     static D:\Vl_prj\Solid_fuel_boiler(rev 2_0)\Software\src\Module_indication\module_indication.c
                  __pa_14   0x001a72    program     static D:\Vl_prj\Solid_fuel_boiler(rev 2_0)\Software\src\Module_indication\module_indication.c
                  __pa_15   0x001a80    program     static D:\Vl_prj\Solid_fuel_boiler(rev 2_0)\Software\src\Module_indication\module_indication.c
                  __pa_16   0x001a8a    program     static D:\Vl_prj\Solid_fuel_boiler(rev 2_0)\Software\src\Module_indication\module_indication.c
                  __pa_17   0x001a92    program     static D:\Vl_prj\Solid_fuel_boiler(rev 2_0)\Software\src\Module_indication\module_indication.c
                  __pa_18   0x001aa2    program     static D:\Vl_prj\Solid_fuel_boiler(rev 2_0)\Software\src\Module_indication\module_indication.c
                  __pa_19   0x001aaa    program     static D:\Vl_prj\Solid_fuel_boiler(rev 2_0)\Software\src\Module_indication\module_indication.c
                  __pa_20   0x001ab2    program     static D:\Vl_prj\Solid_fuel_boiler(rev 2_0)\Software\src\Module_indication\module_indication.c
                  __pa_21   0x001ac2    program     static D:\Vl_prj\Solid_fuel_boiler(rev 2_0)\Software\src\Module_indication\module_indication.c
                  __pa_22   0x001ac8    program     static D:\Vl_prj\Solid_fuel_boiler(rev 2_0)\Software\src\Module_indication\module_indication.c
   Menu_get_manual_supply   0x001ace    program     extern D:\Vl_prj\Solid_fuel_boiler(rev 2_0)\Software\src\Menu\menu.c
Menu_get_temper_water_or_gas   0x001ad4    program     extern D:\Vl_prj\Solid_fuel_boiler(rev 2_0)\Software\src\Menu\menu.c
   Menu_Get_Num_Page_Menu   0x001ada    program     extern D:\Vl_prj\Solid_fuel_boiler(rev 2_0)\Software\src\Menu\menu.c
           Menu_inc_param   0x001ae0    program     extern D:\Vl_prj\Solid_fuel_boiler(rev 2_0)\Software\src\Menu\menu.c
           Menu_dec_param   0x001aec    program     extern D:\Vl_prj\Solid_fuel_boiler(rev 2_0)\Software\src\Menu\menu.c
         Menu_item_change   0x001afa    program     extern D:\Vl_prj\Solid_fuel_boiler(rev 2_0)\Software\src\Menu\menu.c
M_Menu_Set_src_param_menu   0x001b22    program     extern D:\Vl_prj\Solid_fuel_boiler(rev 2_0)\Software\src\Menu\menu.c
M_Menu_write_changed_param   0x001b2c    program     extern D:\Vl_prj\Solid_fuel_boiler(rev 2_0)\Software\src\Menu\menu.c
M_Menu_parameter_is_changed   0x001b52    program     extern D:\Vl_prj\Solid_fuel_boiler(rev 2_0)\Software\src\Menu\menu.c
   M_Menu_write_parameter   0x001b64    program     extern D:\Vl_prj\Solid_fuel_boiler(rev 2_0)\Software\src\Menu\menu.c
M_Menu_entry_rotation_clean_chimney   0x001b90    program     extern D:\Vl_prj\Solid_fuel_boiler(rev 2_0)\Software\src\Menu\menu.c
         Menu_Key_handler   0x001bb0    program     extern D:\Vl_prj\Solid_fuel_boiler(rev 2_0)\Software\src\Menu\menu.c
                   __pa_0   0x001f7e    program     static D:\Vl_prj\Solid_fuel_boiler(rev 2_0)\Software\src\Menu\menu.c
                   __pa_1   0x001f8c    program     static D:\Vl_prj\Solid_fuel_boiler(rev 2_0)\Software\src\Menu\menu.c
                   __pa_2   0x001f96    program     static D:\Vl_prj\Solid_fuel_boiler(rev 2_0)\Software\src\Menu\menu.c
                   __pa_3   0x001f9c    program     static D:\Vl_prj\Solid_fuel_boiler(rev 2_0)\Software\src\Menu\menu.c
                   __pa_4   0x001fae    program     static D:\Vl_prj\Solid_fuel_boiler(rev 2_0)\Software\src\Menu\menu.c
                   __pa_5   0x001fd4    program     static D:\Vl_prj\Solid_fuel_boiler(rev 2_0)\Software\src\Menu\menu.c
                   __pa_6   0x001fde    program     static D:\Vl_prj\Solid_fuel_boiler(rev 2_0)\Software\src\Menu\menu.c
                   __pa_7   0x001fe6    program     static D:\Vl_prj\Solid_fuel_boiler(rev 2_0)\Software\src\Menu\menu.c
                   __pa_8   0x001ff0    program     static D:\Vl_prj\Solid_fuel_boiler(rev 2_0)\Software\src\Menu\menu.c
                   __pa_9   0x002006    program     static D:\Vl_prj\Solid_fuel_boiler(rev 2_0)\Software\src\Menu\menu.c
                  __pa_10   0x002016    program     static D:\Vl_prj\Solid_fuel_boiler(rev 2_0)\Software\src\Menu\menu.c
                  __pa_11   0x002024    program     static D:\Vl_prj\Solid_fuel_boiler(rev 2_0)\Software\src\Menu\menu.c
                  __pa_12   0x002032    program     static D:\Vl_prj\Solid_fuel_boiler(rev 2_0)\Software\src\Menu\menu.c
                  __pa_13   0x00203e    program     static D:\Vl_prj\Solid_fuel_boiler(rev 2_0)\Software\src\Menu\menu.c
                  __pa_14   0x002048    program     static D:\Vl_prj\Solid_fuel_boiler(rev 2_0)\Software\src\Menu\menu.c
                  __pa_15   0x002056    program     static D:\Vl_prj\Solid_fuel_boiler(rev 2_0)\Software\src\Menu\menu.c
                  __pa_16   0x00205e    program     static D:\Vl_prj\Solid_fuel_boiler(rev 2_0)\Software\src\Menu\menu.c
                  __pa_17   0x002066    program     static D:\Vl_prj\Solid_fuel_boiler(rev 2_0)\Software\src\Menu\menu.c
                  __pa_18   0x002070    program     static D:\Vl_prj\Solid_fuel_boiler(rev 2_0)\Software\src\Menu\menu.c
                  __pa_19   0x002082    program     static D:\Vl_prj\Solid_fuel_boiler(rev 2_0)\Software\src\Menu\menu.c
                  __pa_20   0x00208a    program     static D:\Vl_prj\Solid_fuel_boiler(rev 2_0)\Software\src\Menu\menu.c
                  __pa_21   0x002098    program     static D:\Vl_prj\Solid_fuel_boiler(rev 2_0)\Software\src\Menu\menu.c
                  __pa_22   0x0020a6    program     static D:\Vl_prj\Solid_fuel_boiler(rev 2_0)\Software\src\Menu\menu.c
                  __pa_23   0x0020b4    program     static D:\Vl_prj\Solid_fuel_boiler(rev 2_0)\Software\src\Menu\menu.c
                  __pa_24   0x0020c2    program     static D:\Vl_prj\Solid_fuel_boiler(rev 2_0)\Software\src\Menu\menu.c
                  __pa_25   0x0020cc    program     static D:\Vl_prj\Solid_fuel_boiler(rev 2_0)\Software\src\Menu\menu.c
                  __pa_26   0x0020d4    program     static D:\Vl_prj\Solid_fuel_boiler(rev 2_0)\Software\src\Menu\menu.c
                  __pa_27   0x0020dc    program     static D:\Vl_prj\Solid_fuel_boiler(rev 2_0)\Software\src\Menu\menu.c
                  __pa_28   0x0020e6    program     static D:\Vl_prj\Solid_fuel_boiler(rev 2_0)\Software\src\Menu\menu.c
        M_AI_Get_ADC_Data   0x0020ee    program     extern D:\Vl_prj\Solid_fuel_boiler(rev 2_0)\Software\src\Module_analog_inputs\module_analog_inputs.c
             M_AI_ReadADC   0x002110    program     extern D:\Vl_prj\Solid_fuel_boiler(rev 2_0)\Software\src\Module_analog_inputs\module_analog_inputs.c
             M_AI_OpenADC   0x002122    program     extern D:\Vl_prj\Solid_fuel_boiler(rev 2_0)\Software\src\Module_analog_inputs\module_analog_inputs.c
          M_AI_SetChanADC   0x002152    program     extern D:\Vl_prj\Solid_fuel_boiler(rev 2_0)\Software\src\Module_analog_inputs\module_analog_inputs.c
          M_AI_ConvertADC   0x002166    program     extern D:\Vl_prj\Solid_fuel_boiler(rev 2_0)\Software\src\Module_analog_inputs\module_analog_inputs.c
              M_AI_Search   0x00216e    program     extern D:\Vl_prj\Solid_fuel_boiler(rev 2_0)\Software\src\Module_analog_inputs\module_analog_inputs.c
                 M_AI_Run   0x0021e6    program     extern D:\Vl_prj\Solid_fuel_boiler(rev 2_0)\Software\src\Module_analog_inputs\module_analog_inputs.c
      M_AI_Processing_ADC   0x00220e    program     extern D:\Vl_prj\Solid_fuel_boiler(rev 2_0)\Software\src\Module_analog_inputs\module_analog_inputs.c
                   __pa_0   0x00235c    program     static D:\Vl_prj\Solid_fuel_boiler(rev 2_0)\Software\src\Module_analog_inputs\module_analog_inputs.c
                   __pa_1   0x002374    program     static D:\Vl_prj\Solid_fuel_boiler(rev 2_0)\Software\src\Module_analog_inputs\module_analog_inputs.c
                   __pa_2   0x00239e    program     static D:\Vl_prj\Solid_fuel_boiler(rev 2_0)\Software\src\Module_analog_inputs\module_analog_inputs.c
                   __pa_3   0x0023b4    program     static D:\Vl_prj\Solid_fuel_boiler(rev 2_0)\Software\src\Module_analog_inputs\module_analog_inputs.c
                   __pa_4   0x0023c8    program     static D:\Vl_prj\Solid_fuel_boiler(rev 2_0)\Software\src\Module_analog_inputs\module_analog_inputs.c
                   __pa_5   0x0023cc    program     static D:\Vl_prj\Solid_fuel_boiler(rev 2_0)\Software\src\Module_analog_inputs\module_analog_inputs.c
                   __pa_6   0x0023d6    program     static D:\Vl_prj\Solid_fuel_boiler(rev 2_0)\Software\src\Module_analog_inputs\module_analog_inputs.c
                   __pa_7   0x0023de    program     static D:\Vl_prj\Solid_fuel_boiler(rev 2_0)\Software\src\Module_analog_inputs\module_analog_inputs.c
                   __pa_8   0x0023ea    program     static D:\Vl_prj\Solid_fuel_boiler(rev 2_0)\Software\src\Module_analog_inputs\module_analog_inputs.c
                   __pa_9   0x0023ee    program     static D:\Vl_prj\Solid_fuel_boiler(rev 2_0)\Software\src\Module_analog_inputs\module_analog_inputs.c
                  __pa_10   0x0023f6    program     static D:\Vl_prj\Solid_fuel_boiler(rev 2_0)\Software\src\Module_analog_inputs\module_analog_inputs.c
                  __pa_11   0x002400    program     static D:\Vl_prj\Solid_fuel_boiler(rev 2_0)\Software\src\Module_analog_inputs\module_analog_inputs.c
                  __pa_12   0x002406    program     static D:\Vl_prj\Solid_fuel_boiler(rev 2_0)\Software\src\Module_analog_inputs\module_analog_inputs.c
                  __pa_13   0x002414    program     static D:\Vl_prj\Solid_fuel_boiler(rev 2_0)\Software\src\Module_analog_inputs\module_analog_inputs.c
                  __pa_14   0x00241a    program     static D:\Vl_prj\Solid_fuel_boiler(rev 2_0)\Software\src\Module_analog_inputs\module_analog_inputs.c
                  __pa_15   0x00242a    program     static D:\Vl_prj\Solid_fuel_boiler(rev 2_0)\Software\src\Module_analog_inputs\module_analog_inputs.c
                  __pa_16   0x002436    program     static D:\Vl_prj\Solid_fuel_boiler(rev 2_0)\Software\src\Module_analog_inputs\module_analog_inputs.c
                  __pa_17   0x00243c    program     static D:\Vl_prj\Solid_fuel_boiler(rev 2_0)\Software\src\Module_analog_inputs\module_analog_inputs.c
                  __pa_18   0x002446    program     static D:\Vl_prj\Solid_fuel_boiler(rev 2_0)\Software\src\Module_analog_inputs\module_analog_inputs.c
                  __pa_19   0x002454    program     static D:\Vl_prj\Solid_fuel_boiler(rev 2_0)\Software\src\Module_analog_inputs\module_analog_inputs.c
                  __pa_20   0x002460    program     static D:\Vl_prj\Solid_fuel_boiler(rev 2_0)\Software\src\Module_analog_inputs\module_analog_inputs.c
                 Init_PIC   0x002468    program     extern D:\Vl_prj\Solid_fuel_boiler(rev 2_0)\Software\src\Main\main.c
          ___for_lbl00003   0x0024d2    program     static                          
               __tmplbl_0   0x0024f4    program     static                          
          ___for_lbl00001   0x0024f8    program     static                          
          ___for_lbl00002   0x00250c    program     static                          
       ___return_lbl00000   0x00250c    program     static                          
                     main   0x002520    program     extern D:\Vl_prj\Solid_fuel_boiler(rev 2_0)\Software\src\Main\main.c
          ___for_lbl00025   0x00258e    program     static                          
           ___do_lbl00021   0x00259e    program     static                          
         ___else_lbl00010   0x0025b2    program     static                          
           ___if_lbl00009   0x0025ba    program     static                          
               __tmplbl_2   0x0025c4    program     static                          
               __tmplbl_1   0x0025ca    program     static                          
           ___if_lbl00012   0x0025cc    program     static                          
           ___if_lbl00013   0x0025da    program     static                          
            _OS_SCHED_RUN   0x0025de    program     static                          
           ___if_lbl00014   0x0025f0    program     static                          
           ___if_lbl00015   0x0025f4    program     static                          
           ___if_lbl00016   0x0025f8    program     static                          
               __tmplbl_4   0x0025fe    program     static                          
               __tmplbl_3   0x002604    program     static                          
           ___if_lbl00018   0x002606    program     static                          
       _OS_SCHED_CONTINUE   0x002620    program     static                          
           ___do_lbl00007   0x002620    program     static                          
           ___if_lbl00019   0x002620    program     static                          
           ___if_lbl00020   0x002620    program     static                          
           ___do_lbl00008   0x00262c    program     static                          
               __tmplbl_6   0x00264c    program     static                          
               __tmplbl_5   0x002652    program     static                          
           ___if_lbl00024   0x002654    program     static                          
           ___if_lbl00023   0x002654    program     static                          
                SCHED_END   0x002654    program     static                          
          ___for_lbl00005   0x002656    program     static                          
       ___return_lbl00004   0x002658    program     static                          
          ___for_lbl00006   0x002658    program     static                          
           _OS_JumpToTask   0x00265a    program     extern D:\Vl_prj\Solid_fuel_boiler(rev 2_0)\Software\src\OSA\port\pic18\osa_pic18_mplabc.c
           ___if_lbl00001   0x00266a    program     static                          
       ___return_lbl00000   0x00267a    program     static                          
           _OS_ReturnSave   0x00267c    program     extern D:\Vl_prj\Solid_fuel_boiler(rev 2_0)\Software\src\OSA\port\pic18\osa_pic18_mplabc.c
       ___return_lbl00002   0x002692    program     static                          
         _OS_ReturnNoSave   0x002694    program     extern D:\Vl_prj\Solid_fuel_boiler(rev 2_0)\Software\src\OSA\port\pic18\osa_pic18_mplabc.c
       ___return_lbl00003   0x002696    program     static                          
        _OS_EnterWaitMode   0x002698    program     extern D:\Vl_prj\Solid_fuel_boiler(rev 2_0)\Software\src\OSA\port\pic18\osa_pic18_mplabc.c
       ___return_lbl00004   0x00269e    program     static                          
      _OS_EnterWaitModeTO   0x0026a0    program     extern D:\Vl_prj\Solid_fuel_boiler(rev 2_0)\Software\src\OSA\port\pic18\osa_pic18_mplabc.c
       ___return_lbl00005   0x0026a6    program     static                          
_OS_ClrReadySetClrCanContinue   0x0026a8    program     extern D:\Vl_prj\Solid_fuel_boiler(rev 2_0)\Software\src\OSA\port\pic18\osa_pic18_mplabc.c
     _OS_SET_FSR_CUR_TASK   0x0026c8    program     extern D:\Vl_prj\Solid_fuel_boiler(rev 2_0)\Software\src\OSA\port\pic18\osa_pic18_mplabc.c
       ___return_lbl00009   0x0026ce    program     static                          
  __OS_SET_FSR_CUR_TASK_W   0x0026d0    program     extern D:\Vl_prj\Solid_fuel_boiler(rev 2_0)\Software\src\OSA\port\pic18\osa_pic18_mplabc.c
       ___return_lbl00010   0x0026d6    program     static                          
            _OS_InitDelay   0x0026d8    program     extern D:\Vl_prj\Solid_fuel_boiler(rev 2_0)\Software\src\OSA\port\pic18\osa_pic18_mplabc.c
                    OS_DI   0x002724    program     extern D:\Vl_prj\Solid_fuel_boiler(rev 2_0)\Software\src\OSA\port\pic18\osa_pic18_mplabc.c
       ___return_lbl00014   0x00272e    program     static                          
                   _OS_RI   0x002730    program     extern D:\Vl_prj\Solid_fuel_boiler(rev 2_0)\Software\src\OSA\port\pic18\osa_pic18_mplabc.c
       ___return_lbl00015   0x00273c    program     static                          
                 _RI_EXIT   0x00273c    program     static                          
           _OS_CheckEvent   0x00273e    program     extern D:\Vl_prj\Solid_fuel_boiler(rev 2_0)\Software\src\OSA\port\pic18\osa_pic18_mplabc.c
           ___if_lbl00017   0x00274e    program     static                          
         ___else_lbl00019   0x002752    program     static                          
           ___if_lbl00018   0x002754    program     static                          
               __tmplbl_1   0x00275a    program     static                          
               __tmplbl_0   0x002760    program     static                          
           ___if_lbl00021   0x002766    program     static                          
       ___return_lbl00016   0x002768    program     static                          
                  OS_Init   0x00276a    program     extern D:\Vl_prj\Solid_fuel_boiler(rev 2_0)\Software\src\OSA\kernel\system\osa_system.c
                 OS_Timer   0x002780    program     extern D:\Vl_prj\Solid_fuel_boiler(rev 2_0)\Software\src\OSA\kernel\system\osa_system.c
       ___return_lbl00023   0x0027aa    program     static                          
          _OS_Task_Create   0x0027ac    program     extern D:\Vl_prj\Solid_fuel_boiler(rev 2_0)\Software\src\OSA\kernel\system\osa_tasks.c
                   __pa_0   0x002824    program     static D:\Vl_prj\Solid_fuel_boiler(rev 2_0)\Software\src\OSA\kernel\system\osa_tasks.c
                   __pa_1   0x00282e    program     static D:\Vl_prj\Solid_fuel_boiler(rev 2_0)\Software\src\OSA\kernel\system\osa_tasks.c
       M_LI_get_ptr_to_ls   0x00283a    program     extern D:\Vl_prj\Solid_fuel_boiler(rev 2_0)\Software\src\Module_logic_inputs\module_logic_inputs.c
       M_LI_set_ptr_to_ls   0x002844    program     extern D:\Vl_prj\Solid_fuel_boiler(rev 2_0)\Software\src\Module_logic_inputs\module_logic_inputs.c
  M_LI_Get_Limit_Switches   0x002854    program     extern D:\Vl_prj\Solid_fuel_boiler(rev 2_0)\Software\src\Module_logic_inputs\module_logic_inputs.c
       M_LI_Get_Key_State   0x002862    program     extern D:\Vl_prj\Solid_fuel_boiler(rev 2_0)\Software\src\Module_logic_inputs\module_logic_inputs.c
        M_LI_is_LS_worked   0x002870    program     extern D:\Vl_prj\Solid_fuel_boiler(rev 2_0)\Software\src\Module_logic_inputs\module_logic_inputs.c
         M_LI_ls_question   0x002882    program     extern D:\Vl_prj\Solid_fuel_boiler(rev 2_0)\Software\src\Module_logic_inputs\module_logic_inputs.c
        M_LI_Key_Question   0x0028fe    program     extern D:\Vl_prj\Solid_fuel_boiler(rev 2_0)\Software\src\Module_logic_inputs\module_logic_inputs.c
                 M_LI_Run   0x00299e    program     extern D:\Vl_prj\Solid_fuel_boiler(rev 2_0)\Software\src\Module_logic_inputs\module_logic_inputs.c
                   __pa_0   0x0029bc    program     static D:\Vl_prj\Solid_fuel_boiler(rev 2_0)\Software\src\Module_logic_inputs\module_logic_inputs.c
                   __pa_1   0x0029c6    program     static D:\Vl_prj\Solid_fuel_boiler(rev 2_0)\Software\src\Module_logic_inputs\module_logic_inputs.c
                   __pa_2   0x0029d6    program     static D:\Vl_prj\Solid_fuel_boiler(rev 2_0)\Software\src\Module_logic_inputs\module_logic_inputs.c
                   __pa_3   0x0029de    program     static D:\Vl_prj\Solid_fuel_boiler(rev 2_0)\Software\src\Module_logic_inputs\module_logic_inputs.c
M_AI_Table_thermoresistor   0x0029e8    program     extern D:\Vl_prj\Solid_fuel_boiler(rev 2_0)\Software\src\Module_analog_inputs\module_analog_inputs.c
         M_AI_Table_PT100   0x002ab0    program     extern D:\Vl_prj\Solid_fuel_boiler(rev 2_0)\Software\src\Module_analog_inputs\module_analog_inputs.c
   M_AI_Type_Table_Sorted   0x002b5c    program     extern D:\Vl_prj\Solid_fuel_boiler(rev 2_0)\Software\src\Module_analog_inputs\module_analog_inputs.c
     M_AI_Offset_in_table   0x002b5e    program     extern D:\Vl_prj\Solid_fuel_boiler(rev 2_0)\Software\src\Module_analog_inputs\module_analog_inputs.c
   M_AI_Mask_ADC_channels   0x002b62    program     extern D:\Vl_prj\Solid_fuel_boiler(rev 2_0)\Software\src\Module_analog_inputs\module_analog_inputs.c
M_AI_Size_Table_temperature   0x002b64    program     extern D:\Vl_prj\Solid_fuel_boiler(rev 2_0)\Software\src\Module_analog_inputs\module_analog_inputs.c
     InterruptHandlerHigh   0x002b66    program     extern D:\Vl_prj\Solid_fuel_boiler(rev 2_0)\Software\src\Interrupts\interrupts.c
Intr_set_cnt_zero_crossing   0x002c5e    program     extern D:\Vl_prj\Solid_fuel_boiler(rev 2_0)\Software\src\Interrupts\interrupts.c
Intr_get_cnt_zero_crossing   0x002c6a    program     extern D:\Vl_prj\Solid_fuel_boiler(rev 2_0)\Software\src\Interrupts\interrupts.c
   Intr_set_is_zero_cross   0x002c74    program     extern D:\Vl_prj\Solid_fuel_boiler(rev 2_0)\Software\src\Interrupts\interrupts.c
   Intr_get_is_zero_cross   0x002c7c    program     extern D:\Vl_prj\Solid_fuel_boiler(rev 2_0)\Software\src\Interrupts\interrupts.c
Intr_get_is_impulse_agitator_sensor   0x002c82    program     extern D:\Vl_prj\Solid_fuel_boiler(rev 2_0)\Software\src\Interrupts\interrupts.c
Intr_set_is_impulse_agitator_sensor   0x002c88    program     extern D:\Vl_prj\Solid_fuel_boiler(rev 2_0)\Software\src\Interrupts\interrupts.c
                   __pa_0   0x002c90    program     static D:\Vl_prj\Solid_fuel_boiler(rev 2_0)\Software\src\Interrupts\interrupts.c
                   __pa_1   0x002c9c    program     static D:\Vl_prj\Solid_fuel_boiler(rev 2_0)\Software\src\Interrupts\interrupts.c
      M_fan_set_level_fan   0x002ca4    program     extern D:\Vl_prj\Solid_fuel_boiler(rev 2_0)\Software\src\Module_fan\module_fan.c
       M_fan_set_ctrl_fan   0x002cac    program     extern D:\Vl_prj\Solid_fuel_boiler(rev 2_0)\Software\src\Module_fan\module_fan.c
       M_fan_get_ctrl_fan   0x002cb4    program     extern D:\Vl_prj\Solid_fuel_boiler(rev 2_0)\Software\src\Module_fan\module_fan.c
        M_fan_get_is_220V   0x002cba    program     extern D:\Vl_prj\Solid_fuel_boiler(rev 2_0)\Software\src\Module_fan\module_fan.c
         M_fan_check_220V   0x002cc0    program     extern D:\Vl_prj\Solid_fuel_boiler(rev 2_0)\Software\src\Module_fan\module_fan.c
     M_fan_clear_timeouts   0x002cca    program     extern D:\Vl_prj\Solid_fuel_boiler(rev 2_0)\Software\src\Module_fan\module_fan.c
                M_fan_run   0x002cda    program     extern D:\Vl_prj\Solid_fuel_boiler(rev 2_0)\Software\src\Module_fan\module_fan.c
           M_Fan_work_fan   0x002d56    program     extern D:\Vl_prj\Solid_fuel_boiler(rev 2_0)\Software\src\Module_fan\module_fan.c
                   __pa_0   0x002dca    program     static D:\Vl_prj\Solid_fuel_boiler(rev 2_0)\Software\src\Module_fan\module_fan.c
                   __pa_1   0x002dd6    program     static D:\Vl_prj\Solid_fuel_boiler(rev 2_0)\Software\src\Module_fan\module_fan.c
                 delay_ms   0x002dde    program     static D:\Vl_prj\Solid_fuel_boiler(rev 2_0)\Software\src\EEPROMmemory\eeprom.c
               DataEERead   0x002de6    program     extern D:\Vl_prj\Solid_fuel_boiler(rev 2_0)\Software\src\EEPROMmemory\eeprom.c
              DataEEWrite   0x002e12    program     extern D:\Vl_prj\Solid_fuel_boiler(rev 2_0)\Software\src\EEPROMmemory\eeprom.c
       Read_buffer_EEPROM   0x002e32    program     extern D:\Vl_prj\Solid_fuel_boiler(rev 2_0)\Software\src\EEPROMmemory\eeprom.c
                   __pa_0   0x002e80    program     static D:\Vl_prj\Solid_fuel_boiler(rev 2_0)\Software\src\EEPROMmemory\eeprom.c
                   __pa_1   0x002ea2    program     static D:\Vl_prj\Solid_fuel_boiler(rev 2_0)\Software\src\EEPROMmemory\eeprom.c
                   __pa_2   0x002eac    program     static D:\Vl_prj\Solid_fuel_boiler(rev 2_0)\Software\src\EEPROMmemory\eeprom.c
                   __pa_3   0x002eb6    program     static D:\Vl_prj\Solid_fuel_boiler(rev 2_0)\Software\src\EEPROMmemory\eeprom.c
M_Sound_set_button_submergence   0x002ec0    program     extern D:\Vl_prj\Solid_fuel_boiler(rev 2_0)\Software\src\Module_sound\module_sound.c
              M_Sound_run   0x002ed6    program     extern D:\Vl_prj\Solid_fuel_boiler(rev 2_0)\Software\src\Module_sound\module_sound.c
                _do_cinit   0x002f8a    program     extern E:\3.46\pic18-lt\cxx-framework\src\traditional\startup\c018i.c
                     test   0x002fa4    program     static                          
                copy_loop   0x002ffc    program     static                          
            copy_one_byte   0x003002    program     static                          
             done_copying   0x003010    program     static                          
                     done   0x003026    program     static                          
       ___return_lbl00002   0x003026    program     static                          
                 i2c_init   0x003028    program     extern D:\Vl_prj\Solid_fuel_boiler(rev 2_0)\Software\src\Drivers\i2c.c
                 i2c_idle   0x00303e    program     extern D:\Vl_prj\Solid_fuel_boiler(rev 2_0)\Software\src\Drivers\i2c.c
                i2c_start   0x00304c    program     extern D:\Vl_prj\Solid_fuel_boiler(rev 2_0)\Software\src\Drivers\i2c.c
                 i2c_stop   0x00306c    program     extern D:\Vl_prj\Solid_fuel_boiler(rev 2_0)\Software\src\Drivers\i2c.c
            i2c_slave_ack   0x003074    program     extern D:\Vl_prj\Solid_fuel_boiler(rev 2_0)\Software\src\Drivers\i2c.c
                i2c_write   0x00307e    program     extern D:\Vl_prj\Solid_fuel_boiler(rev 2_0)\Software\src\Drivers\i2c.c
           i2c_master_ack   0x00308e    program     extern D:\Vl_prj\Solid_fuel_boiler(rev 2_0)\Software\src\Drivers\i2c.c
                 i2c_read   0x0030a0    program     extern D:\Vl_prj\Solid_fuel_boiler(rev 2_0)\Software\src\Drivers\i2c.c
                   __pa_0   0x0030ac    program     static D:\Vl_prj\Solid_fuel_boiler(rev 2_0)\Software\src\Drivers\i2c.c
                   __pa_1   0x0030ba    program     static D:\Vl_prj\Solid_fuel_boiler(rev 2_0)\Software\src\Drivers\i2c.c
    Menu_items_thresholds   0x0030c2    program     extern D:\Vl_prj\Solid_fuel_boiler(rev 2_0)\Software\src\Menu\menu.c
       motor_pins_forward   0x00311a    program     extern D:\Vl_prj\Solid_fuel_boiler(rev 2_0)\Software\src\Module_motor\module_motor.c
      motor_pins_backward   0x00312c    program     extern D:\Vl_prj\Solid_fuel_boiler(rev 2_0)\Software\src\Module_motor\module_motor.c
 motor_pins_brake_high_sw   0x00313e    program     extern D:\Vl_prj\Solid_fuel_boiler(rev 2_0)\Software\src\Module_motor\module_motor.c
  motor_pins_brake_low_sw   0x003150    program     extern D:\Vl_prj\Solid_fuel_boiler(rev 2_0)\Software\src\Module_motor\module_motor.c
                 FXM1616U   0x003162    program     extern E:\3.46\pic18-lt\cxx-framework\src\traditional\math\fxm1616u.asm
                   memset   0x00319e    program     extern E:\3.46\pic18-lt\cxx-framework\src\traditional\stdclib\memset.asm
                    jLoop   0x0031b2    program     static E:\3.46\pic18-lt\cxx-framework\src\traditional\stdclib\memset.asm
              _2jContinue   0x0031be    program     static E:\3.46\pic18-lt\cxx-framework\src\traditional\stdclib\memset.asm
                   _3jEnd   0x0031c8    program     static E:\3.46\pic18-lt\cxx-framework\src\traditional\stdclib\memset.asm
                     jEnd   0x0031d0    program     static E:\3.46\pic18-lt\cxx-framework\src\traditional\stdclib\memset.asm
             start_config   0x0031d2    program     extern D:\Vl_prj\Solid_fuel_boiler(rev 2_0)\Software\src\EEPROMmemory\eeprom.c
                 FXD1616U   0x003202    program     extern E:\3.46\pic18-lt\cxx-framework\src\traditional\math\fxd1616u.c
                     loop   0x00320c    program     static                          
                  endloop   0x003228    program     static                          
       ___return_lbl00000   0x00322c    program     static                          
                Task_Outs   0x00322e    program     extern D:\Vl_prj\Solid_fuel_boiler(rev 2_0)\Software\src\Task_outs\task_outs.c
          ___for_lbl00003   0x00322e    program     static                          
          ___for_lbl00001   0x00324a    program     static                          
          ___for_lbl00002   0x00324c    program     static                          
       ___return_lbl00000   0x00324c    program     static                          
            __zero_memory   0x00324e    program     extern E:\3.46\pic18-lt\cxx-framework\src\traditional\proc\p18f87j50.asm
                   loop_h   0x00325c    program     static E:\3.46\pic18-lt\cxx-framework\src\traditional\proc\p18f87j50.asm
               zero_block   0x00325c    program     static E:\3.46\pic18-lt\cxx-framework\src\traditional\proc\p18f87j50.asm
                compare_l   0x003264    program     static E:\3.46\pic18-lt\cxx-framework\src\traditional\proc\p18f87j50.asm
                   loop_l   0x003266    program     static E:\3.46\pic18-lt\cxx-framework\src\traditional\proc\p18f87j50.asm
          M_Ind_Portraits   0x00326e    program     extern D:\Vl_prj\Solid_fuel_boiler(rev 2_0)\Software\src\Module_indication\module_indication.c
                 decimals   0x003286    program     extern D:\Vl_prj\Solid_fuel_boiler(rev 2_0)\Software\src\Module_indication\module_indication.c
         M_Ind_time_const   0x003289    program     extern D:\Vl_prj\Solid_fuel_boiler(rev 2_0)\Software\src\Module_indication\module_indication.c
                 _startup   0x00328e    program     extern E:\3.46\pic18-lt\cxx-framework\src\traditional\startup\c018i.c
                     loop   0x00329e    program     static                          
       ___return_lbl00001   0x0032a8    program     static                          
              Task_Motors   0x0032aa    program     extern D:\Vl_prj\Solid_fuel_boiler(rev 2_0)\Software\src\Task_motors\task_motors.c
          ___for_lbl00003   0x0032aa    program     static                          
          ___for_lbl00001   0x0032be    program     static                          
       ___return_lbl00000   0x0032c0    program     static                          
          ___for_lbl00002   0x0032c0    program     static                          
          ___for_lbl00003   0x0032c2    program     static                          
          Task_Management   0x0032c2    program     extern D:\Vl_prj\Solid_fuel_boiler(rev 2_0)\Software\src\Task_management\task_management.c
          ___for_lbl00001   0x0032d6    program     static                          
       ___return_lbl00000   0x0032d8    program     static                          
          ___for_lbl00002   0x0032d8    program     static                          
          ___for_lbl00003   0x0032da    program     static                          
        Task_Logic_Inputs   0x0032da    program     extern D:\Vl_prj\Solid_fuel_boiler(rev 2_0)\Software\src\Task_logic_inputs\task_logic_inputs.c
          ___for_lbl00001   0x0032ee    program     static                          
       ___return_lbl00000   0x0032f0    program     static                          
          ___for_lbl00002   0x0032f0    program     static                          
          ___for_lbl00003   0x0032f2    program     static                          
       Task_Analog_Inputs   0x0032f2    program     extern D:\Vl_prj\Solid_fuel_boiler(rev 2_0)\Software\src\Task_analog_inputs\task_analog_inputs.c
          ___for_lbl00001   0x003306    program     static                          
          ___for_lbl00002   0x003308    program     static                          
       ___return_lbl00000   0x003308    program     static                          
                   __init   0x00330a    program     extern E:\3.46\pic18-lt\cxx-framework\src\traditional\stdclib\__init.c
               __config_0   0x01fff8    program     static D:\Vl_prj\Solid_fuel_boiler(rev 2_0)\Software\src\Main\main.c
               __config_1   0x01fff9    program     static D:\Vl_prj\Solid_fuel_boiler(rev 2_0)\Software\src\Main\main.c
               __config_2   0x01fffa    program     static D:\Vl_prj\Solid_fuel_boiler(rev 2_0)\Software\src\Main\main.c
               __config_3   0x01fffb    program     static D:\Vl_prj\Solid_fuel_boiler(rev 2_0)\Software\src\Main\main.c
               __config_4   0x01fffc    program     static D:\Vl_prj\Solid_fuel_boiler(rev 2_0)\Software\src\Main\main.c
               __config_5   0x01fffd    program     static D:\Vl_prj\Solid_fuel_boiler(rev 2_0)\Software\src\Main\main.c
             _OS_BestTask   0x000000       data     extern D:\Vl_prj\Solid_fuel_boiler(rev 2_0)\Software\src\OSA\osa.c
             _OS_LastTask   0x000002       data     extern D:\Vl_prj\Solid_fuel_boiler(rev 2_0)\Software\src\OSA\osa.c
        _OS_Best_Priority   0x000004       data     extern D:\Vl_prj\Solid_fuel_boiler(rev 2_0)\Software\src\OSA\osa.c
                _OS_Tasks   0x000005       data     extern D:\Vl_prj\Solid_fuel_boiler(rev 2_0)\Software\src\OSA\kernel\system\osa_tasks.c
                     SIGN   0x00001e       data     extern E:\3.46\pic18-lt\cxx-framework\src\traditional\math\cmath18.asm
                __FPFLAGS   0x00001f       data     extern E:\3.46\pic18-lt\cxx-framework\src\traditional\math\cmath18.asm
            __FPFLAGSbits   0x00001f       data     extern E:\3.46\pic18-lt\cxx-framework\src\traditional\math\cmath18.asm
                 __AARGB7   0x000020       data     extern E:\3.46\pic18-lt\cxx-framework\src\traditional\math\aarg.asm
                  __REMB3   0x000020       data     extern E:\3.46\pic18-lt\cxx-framework\src\traditional\math\aarg.asm
                 __AARGB6   0x000021       data     extern E:\3.46\pic18-lt\cxx-framework\src\traditional\math\aarg.asm
                  __REMB2   0x000021       data     extern E:\3.46\pic18-lt\cxx-framework\src\traditional\math\aarg.asm
                 __AARGB5   0x000022       data     extern E:\3.46\pic18-lt\cxx-framework\src\traditional\math\aarg.asm
                  __REMB1   0x000022       data     extern E:\3.46\pic18-lt\cxx-framework\src\traditional\math\aarg.asm
                  __REMB0   0x000023       data     extern E:\3.46\pic18-lt\cxx-framework\src\traditional\math\aarg.asm
                 __AARGB4   0x000023       data     extern E:\3.46\pic18-lt\cxx-framework\src\traditional\math\aarg.asm
                 __AARGB3   0x000024       data     extern E:\3.46\pic18-lt\cxx-framework\src\traditional\math\aarg.asm
                 __AARGB2   0x000025       data     extern E:\3.46\pic18-lt\cxx-framework\src\traditional\math\aarg.asm
                 __AARGB1   0x000026       data     extern E:\3.46\pic18-lt\cxx-framework\src\traditional\math\aarg.asm
                 __AARGB0   0x000027       data     extern E:\3.46\pic18-lt\cxx-framework\src\traditional\math\aarg.asm
                   __AEXP   0x000028       data     extern E:\3.46\pic18-lt\cxx-framework\src\traditional\math\aarg.asm
                 __BARGB3   0x000029       data     extern E:\3.46\pic18-lt\cxx-framework\src\traditional\math\barg.asm
                 __BARGB2   0x00002a       data     extern E:\3.46\pic18-lt\cxx-framework\src\traditional\math\barg.asm
                 __BARGB1   0x00002b       data     extern E:\3.46\pic18-lt\cxx-framework\src\traditional\math\barg.asm
                 __BARGB0   0x00002c       data     extern E:\3.46\pic18-lt\cxx-framework\src\traditional\math\barg.asm
                   __BEXP   0x00002d       data     extern E:\3.46\pic18-lt\cxx-framework\src\traditional\math\barg.asm
                 __TEMPB3   0x00002e       data     extern E:\3.46\pic18-lt\cxx-framework\src\traditional\math\temparg.asm
                 __TEMPB2   0x00002f       data     extern E:\3.46\pic18-lt\cxx-framework\src\traditional\math\temparg.asm
                 __TEMPB1   0x000030       data     extern E:\3.46\pic18-lt\cxx-framework\src\traditional\math\temparg.asm
                 __TEMPB0   0x000031       data     extern E:\3.46\pic18-lt\cxx-framework\src\traditional\math\temparg.asm
                   __TEMP   0x000031       data     extern E:\3.46\pic18-lt\cxx-framework\src\traditional\math\temparg.asm
                  __tmp_0   0x000032       data     static D:\Vl_prj\Solid_fuel_boiler(rev 2_0)\Software\src\Module_sound\module_sound.c
                  __tmp_0   0x000032       data     static D:\Vl_prj\Solid_fuel_boiler(rev 2_0)\Software\src\EEPROMmemory\eeprom.c
                  __tmp_0   0x000032       data     static D:\Vl_prj\Solid_fuel_boiler(rev 2_0)\Software\src\Module_management\module_management.c
                  __tmp_0   0x000032       data     static D:\Vl_prj\Solid_fuel_boiler(rev 2_0)\Software\src\Module_motor\module_motor.c
                  __tmp_0   0x000032       data     static D:\Vl_prj\Solid_fuel_boiler(rev 2_0)\Software\src\Module_indication\module_indication.c
                  __tmp_0   0x000032       data     static D:\Vl_prj\Solid_fuel_boiler(rev 2_0)\Software\src\Menu\menu.c
                  __tmp_0   0x000032       data     static D:\Vl_prj\Solid_fuel_boiler(rev 2_0)\Software\src\Module_analog_inputs\module_analog_inputs.c
                  __tmp_0   0x000032       data     static D:\Vl_prj\Solid_fuel_boiler(rev 2_0)\Software\src\Module_fan\module_fan.c
                  __tmp_0   0x000032       data     static D:\Vl_prj\Solid_fuel_boiler(rev 2_0)\Software\src\Module_logic_inputs\module_logic_inputs.c
                _OS_Flags   0x00003a       data     extern D:\Vl_prj\Solid_fuel_boiler(rev 2_0)\Software\src\OSA\osa.c
                 _OS_Temp   0x00003b       data     extern D:\Vl_prj\Solid_fuel_boiler(rev 2_0)\Software\src\OSA\osa.c
                _OS_TempH   0x00003c       data     extern D:\Vl_prj\Solid_fuel_boiler(rev 2_0)\Software\src\OSA\osa.c
              _OS_CurTask   0x00003d       data     extern D:\Vl_prj\Solid_fuel_boiler(rev 2_0)\Software\src\OSA\osa.c
                  __tmp_1   0x00003f       data     static D:\Vl_prj\Solid_fuel_boiler(rev 2_0)\Software\src\Interrupts\interrupts.c
                 cnt_duty   0x000060       data     extern D:\Vl_prj\Solid_fuel_boiler(rev 2_0)\Software\src\Module_motor\module_motor.c
              accel_state   0x000061       data     extern D:\Vl_prj\Solid_fuel_boiler(rev 2_0)\Software\src\Module_motor\module_motor.c
           saved_cnt_duty   0x000062       data     extern D:\Vl_prj\Solid_fuel_boiler(rev 2_0)\Software\src\Module_motor\module_motor.c
       M_Motor_PWM_period   0x000063       data     extern D:\Vl_prj\Solid_fuel_boiler(rev 2_0)\Software\src\Module_motor\module_motor.c
            M_Motor_state   0x000064       data     extern D:\Vl_prj\Solid_fuel_boiler(rev 2_0)\Software\src\Module_motor\module_motor.c
                     ctrl   0x000065       data     extern D:\Vl_prj\Solid_fuel_boiler(rev 2_0)\Software\src\Module_motor\module_motor.c
                direction   0x000066       data     extern D:\Vl_prj\Solid_fuel_boiler(rev 2_0)\Software\src\Module_motor\module_motor.c
                num_motor   0x000067       data     extern D:\Vl_prj\Solid_fuel_boiler(rev 2_0)\Software\src\Module_motor\module_motor.c
             ctrl_shatter   0x000068       data     extern D:\Vl_prj\Solid_fuel_boiler(rev 2_0)\Software\src\Module_motor\module_motor.c
                 cnt_step   0x000069       data     extern D:\Vl_prj\Solid_fuel_boiler(rev 2_0)\Software\src\Module_motor\module_motor.c
   M_Motor_false_state_LS   0x00006a       data     extern D:\Vl_prj\Solid_fuel_boiler(rev 2_0)\Software\src\Module_motor\module_motor.c
M_Motor_direction_question_LS   0x00006f       data     extern D:\Vl_prj\Solid_fuel_boiler(rev 2_0)\Software\src\Module_motor\module_motor.c
            temp_start_ls   0x000074       data     extern D:\Vl_prj\Solid_fuel_boiler(rev 2_0)\Software\src\Module_motor\module_motor.c
       M_Motor_prev_state   0x000076       data     extern D:\Vl_prj\Solid_fuel_boiler(rev 2_0)\Software\src\Module_motor\module_motor.c
             time_M_Motor   0x000077       data     extern D:\Vl_prj\Solid_fuel_boiler(rev 2_0)\Software\src\Module_motor\module_motor.c
    M_Motor_failure_motor   0x000085       data     extern D:\Vl_prj\Solid_fuel_boiler(rev 2_0)\Software\src\Module_motor\module_motor.c
        ptr_to_motor_pins   0x00008b       data     extern D:\Vl_prj\Solid_fuel_boiler(rev 2_0)\Software\src\Module_motor\module_motor.c
         is_motor_failure   0x00008d       data     static D:\Vl_prj\Solid_fuel_boiler(rev 2_0)\Software\src\Module_motor\module_motor.c
      cnt_failure_forward   0x00008e       data     static D:\Vl_prj\Solid_fuel_boiler(rev 2_0)\Software\src\Module_motor\module_motor.c
     cnt_failure_backward   0x00008f       data     static D:\Vl_prj\Solid_fuel_boiler(rev 2_0)\Software\src\Module_motor\module_motor.c
              after_pause   0x000090       data     static D:\Vl_prj\Solid_fuel_boiler(rev 2_0)\Software\src\Module_motor\module_motor.c
          shatter_reverse   0x000091       data     static D:\Vl_prj\Solid_fuel_boiler(rev 2_0)\Software\src\Module_motor\module_motor.c
               step_brake   0x000092       data     static D:\Vl_prj\Solid_fuel_boiler(rev 2_0)\Software\src\Module_motor\module_motor.c
               M_Ind_data   0x000093       data     extern D:\Vl_prj\Solid_fuel_boiler(rev 2_0)\Software\src\Module_indication\module_indication.c
               time_M_Ind   0x0000a4       data     extern D:\Vl_prj\Solid_fuel_boiler(rev 2_0)\Software\src\Module_indication\module_indication.c
              M_Ind_State   0x0000ac       data     extern D:\Vl_prj\Solid_fuel_boiler(rev 2_0)\Software\src\Module_indication\module_indication.c
     M_Ind_Previous_State   0x0000ad       data     extern D:\Vl_prj\Solid_fuel_boiler(rev 2_0)\Software\src\Module_indication\module_indication.c
               blink_mode   0x0000ae       data     extern D:\Vl_prj\Solid_fuel_boiler(rev 2_0)\Software\src\Module_indication\module_indication.c
                  count_s   0x0000af       data     static D:\Vl_prj\Solid_fuel_boiler(rev 2_0)\Software\src\Module_indication\module_indication.c
            M_AI_ptrTable   0x0000b0       data     extern D:\Vl_prj\Solid_fuel_boiler(rev 2_0)\Software\src\Module_analog_inputs\module_analog_inputs.c
            M_AI_ADC_Data   0x0000b4       data     extern D:\Vl_prj\Solid_fuel_boiler(rev 2_0)\Software\src\Module_analog_inputs\module_analog_inputs.c
            index_channel   0x0000c0       data     static D:\Vl_prj\Solid_fuel_boiler(rev 2_0)\Software\src\Module_analog_inputs\module_analog_inputs.c
             M_Mngm_State   0x0000c1       data     extern D:\Vl_prj\Solid_fuel_boiler(rev 2_0)\Software\src\Module_management\module_management.c
      M_Mngm_Code_Failure   0x0000c2       data     extern D:\Vl_prj\Solid_fuel_boiler(rev 2_0)\Software\src\Module_management\module_management.c
    M_Mngm_Previous_State   0x0000c3       data     extern D:\Vl_prj\Solid_fuel_boiler(rev 2_0)\Software\src\Module_management\module_management.c
            burning_state   0x0000c4       data     extern D:\Vl_prj\Solid_fuel_boiler(rev 2_0)\Software\src\Module_management\module_management.c
      timeout_supply_fuel   0x0000c5       data     extern D:\Vl_prj\Solid_fuel_boiler(rev 2_0)\Software\src\Module_management\module_management.c
 timeout_check_gas_sensor   0x0000c7       data     extern D:\Vl_prj\Solid_fuel_boiler(rev 2_0)\Software\src\Module_management\module_management.c
timeout_change_temperature_water   0x0000c9       data     extern D:\Vl_prj\Solid_fuel_boiler(rev 2_0)\Software\src\Module_management\module_management.c
     M_Mngm_state_draught   0x0000cb       data     extern D:\Vl_prj\Solid_fuel_boiler(rev 2_0)\Software\src\Module_management\module_management.c
          state_accel_fan   0x0000cc       data     extern D:\Vl_prj\Solid_fuel_boiler(rev 2_0)\Software\src\Module_management\module_management.c
              phase_cycle   0x0000cd       data     extern D:\Vl_prj\Solid_fuel_boiler(rev 2_0)\Software\src\Module_management\module_management.c
         fan_param_offset   0x0000ce       data     extern D:\Vl_prj\Solid_fuel_boiler(rev 2_0)\Software\src\Module_management\module_management.c
                pFanLevel   0x0000cf       data     extern D:\Vl_prj\Solid_fuel_boiler(rev 2_0)\Software\src\Module_management\module_management.c
           M_LI_Key_State   0x0000d1       data     extern D:\Vl_prj\Solid_fuel_boiler(rev 2_0)\Software\src\Module_logic_inputs\module_logic_inputs.c
      M_LI_Limit_Switches   0x0000d4       data     extern D:\Vl_prj\Solid_fuel_boiler(rev 2_0)\Software\src\Module_logic_inputs\module_logic_inputs.c
                ptr_to_ls   0x0000db       data     extern D:\Vl_prj\Solid_fuel_boiler(rev 2_0)\Software\src\Module_logic_inputs\module_logic_inputs.c
       M_LI_accum_pressed   0x0000dd       data     static D:\Vl_prj\Solid_fuel_boiler(rev 2_0)\Software\src\Module_logic_inputs\module_logic_inputs.c
            M_fan_is_220V   0x0000df       data     extern D:\Vl_prj\Solid_fuel_boiler(rev 2_0)\Software\src\Module_fan\module_fan.c
                 ctrl_fan   0x0000e0       data     extern D:\Vl_prj\Solid_fuel_boiler(rev 2_0)\Software\src\Module_fan\module_fan.c
              M_fan_state   0x0000e1       data     extern D:\Vl_prj\Solid_fuel_boiler(rev 2_0)\Software\src\Module_fan\module_fan.c
     M_fan_previous_state   0x0000e2       data     extern D:\Vl_prj\Solid_fuel_boiler(rev 2_0)\Software\src\Module_fan\module_fan.c
                level_fan   0x0000e3       data     extern D:\Vl_prj\Solid_fuel_boiler(rev 2_0)\Software\src\Module_fan\module_fan.c
           step_force_fan   0x0000e4       data     extern D:\Vl_prj\Solid_fuel_boiler(rev 2_0)\Software\src\Module_fan\module_fan.c
          timer_force_fan   0x0000e5       data     extern D:\Vl_prj\Solid_fuel_boiler(rev 2_0)\Software\src\Module_fan\module_fan.c
               time_M_Fan   0x0000e7       data     extern D:\Vl_prj\Solid_fuel_boiler(rev 2_0)\Software\src\Module_fan\module_fan.c
                  counter   0x0000eb       data     static D:\Vl_prj\Solid_fuel_boiler(rev 2_0)\Software\src\Module_fan\module_fan.c
          cnt_half_period   0x0000ec       data     static D:\Vl_prj\Solid_fuel_boiler(rev 2_0)\Software\src\Module_fan\module_fan.c
                     prom   0x0000ed       data     static E:\3.46\pic18-lt\cxx-framework\src\traditional\startup\c018i.c
                curr_byte   0x0000f0       data     static E:\3.46\pic18-lt\cxx-framework\src\traditional\startup\c018i.c
               curr_entry   0x0000f2       data     static E:\3.46\pic18-lt\cxx-framework\src\traditional\startup\c018i.c
                 data_ptr   0x0000f4       data     static E:\3.46\pic18-lt\cxx-framework\src\traditional\startup\c018i.c
             time_M_Sound   0x0000f7       data     extern D:\Vl_prj\Solid_fuel_boiler(rev 2_0)\Software\src\Module_sound\module_sound.c
       button_submergence   0x0000fc       data     extern D:\Vl_prj\Solid_fuel_boiler(rev 2_0)\Software\src\Module_sound\module_sound.c
        cnt_zero_crossing   0x000100       data     extern D:\Vl_prj\Solid_fuel_boiler(rev 2_0)\Software\src\Interrupts\interrupts.c
            is_zero_cross   0x000102       data     extern D:\Vl_prj\Solid_fuel_boiler(rev 2_0)\Software\src\Interrupts\interrupts.c
is_impulse_agitator_sensor   0x000103       data     extern D:\Vl_prj\Solid_fuel_boiler(rev 2_0)\Software\src\Interrupts\interrupts.c
  saved_temperature_water   0x000f00       data     extern D:\Vl_prj\Solid_fuel_boiler(rev 2_0)\Software\src\Module_management\module_management.c
 M_Mngm_parameters_buffer   0x000f01       data     extern D:\Vl_prj\Solid_fuel_boiler(rev 2_0)\Software\src\Module_management\module_management.c
         period_load_fuel   0x000f30       data     extern D:\Vl_prj\Solid_fuel_boiler(rev 2_0)\Software\src\Module_management\module_management.c
                  timeout   0x000f32       data     extern D:\Vl_prj\Solid_fuel_boiler(rev 2_0)\Software\src\Module_management\module_management.c
                    level   0x000f34       data     extern D:\Vl_prj\Solid_fuel_boiler(rev 2_0)\Software\src\Module_management\module_management.c
                time_step   0x000f35       data     static D:\Vl_prj\Solid_fuel_boiler(rev 2_0)\Software\src\Module_management\module_management.c
               temp_index   0x000f37       data     extern D:\Vl_prj\Solid_fuel_boiler(rev 2_0)\Software\src\Module_motor\module_motor.c
                  ls_type   0x000f38       data     static D:\Vl_prj\Solid_fuel_boiler(rev 2_0)\Software\src\Module_motor\module_motor.c
     quantity_steps_accel   0x000f39       data     static D:\Vl_prj\Solid_fuel_boiler(rev 2_0)\Software\src\Module_motor\module_motor.c
            delta_t_accel   0x000f3a       data     static D:\Vl_prj\Solid_fuel_boiler(rev 2_0)\Software\src\Module_motor\module_motor.c
       Menu_Num_Page_Menu   0x000f3c       data     extern D:\Vl_prj\Solid_fuel_boiler(rev 2_0)\Software\src\Menu\menu.c
    M_Menu_src_param_menu   0x000f3d       data     extern D:\Vl_prj\Solid_fuel_boiler(rev 2_0)\Software\src\Menu\menu.c
      temper_water_or_gas   0x000f3e       data     extern D:\Vl_prj\Solid_fuel_boiler(rev 2_0)\Software\src\Menu\menu.c
       Menu_manual_supply   0x000f3f       data     extern D:\Vl_prj\Solid_fuel_boiler(rev 2_0)\Software\src\Menu\menu.c
                   PMSTAT   0x000f40       data     extern E:\3.46\pic18-lt\cxx-framework\src\traditional\proc\p18f87j50.asm
                  PMSTATL   0x000f40       data     extern E:\3.46\pic18-lt\cxx-framework\src\traditional\proc\p18f87j50.asm
              PMSTATLbits   0x000f40       data     extern E:\3.46\pic18-lt\cxx-framework\src\traditional\proc\p18f87j50.asm
                  PMSTATH   0x000f41       data     extern E:\3.46\pic18-lt\cxx-framework\src\traditional\proc\p18f87j50.asm
              PMSTATHbits   0x000f41       data     extern E:\3.46\pic18-lt\cxx-framework\src\traditional\proc\p18f87j50.asm
                     PMEN   0x000f42       data     extern E:\3.46\pic18-lt\cxx-framework\src\traditional\proc\p18f87j50.asm
                 PMELbits   0x000f42       data     extern E:\3.46\pic18-lt\cxx-framework\src\traditional\proc\p18f87j50.asm
                     PMEL   0x000f42       data     extern E:\3.46\pic18-lt\cxx-framework\src\traditional\proc\p18f87j50.asm
                 PMEHbits   0x000f43       data     extern E:\3.46\pic18-lt\cxx-framework\src\traditional\proc\p18f87j50.asm
                     PMEH   0x000f43       data     extern E:\3.46\pic18-lt\cxx-framework\src\traditional\proc\p18f87j50.asm
                  PMDIN2L   0x000f44       data     extern E:\3.46\pic18-lt\cxx-framework\src\traditional\proc\p18f87j50.asm
                   PMDIN2   0x000f44       data     extern E:\3.46\pic18-lt\cxx-framework\src\traditional\proc\p18f87j50.asm
                  PMDIN2H   0x000f45       data     extern E:\3.46\pic18-lt\cxx-framework\src\traditional\proc\p18f87j50.asm
                 PMDOUT2L   0x000f46       data     extern E:\3.46\pic18-lt\cxx-framework\src\traditional\proc\p18f87j50.asm
                  PMDOUT2   0x000f46       data     extern E:\3.46\pic18-lt\cxx-framework\src\traditional\proc\p18f87j50.asm
                 PMDOUT2H   0x000f47       data     extern E:\3.46\pic18-lt\cxx-framework\src\traditional\proc\p18f87j50.asm
                  PMMODEL   0x000f48       data     extern E:\3.46\pic18-lt\cxx-framework\src\traditional\proc\p18f87j50.asm
              PMMODELbits   0x000f48       data     extern E:\3.46\pic18-lt\cxx-framework\src\traditional\proc\p18f87j50.asm
                   PMMODE   0x000f48       data     extern E:\3.46\pic18-lt\cxx-framework\src\traditional\proc\p18f87j50.asm
                  PMMODEH   0x000f49       data     extern E:\3.46\pic18-lt\cxx-framework\src\traditional\proc\p18f87j50.asm
              PMMODEHbits   0x000f49       data     extern E:\3.46\pic18-lt\cxx-framework\src\traditional\proc\p18f87j50.asm
                    PMCON   0x000f4a       data     extern E:\3.46\pic18-lt\cxx-framework\src\traditional\proc\p18f87j50.asm
               PMCONLbits   0x000f4a       data     extern E:\3.46\pic18-lt\cxx-framework\src\traditional\proc\p18f87j50.asm
                   PMCONL   0x000f4a       data     extern E:\3.46\pic18-lt\cxx-framework\src\traditional\proc\p18f87j50.asm
                   PMCONH   0x000f4b       data     extern E:\3.46\pic18-lt\cxx-framework\src\traditional\proc\p18f87j50.asm
               PMCONHbits   0x000f4b       data     extern E:\3.46\pic18-lt\cxx-framework\src\traditional\proc\p18f87j50.asm
                     UEP0   0x000f4c       data     extern E:\3.46\pic18-lt\cxx-framework\src\traditional\proc\p18f87j50.asm
                 UEP0bits   0x000f4c       data     extern E:\3.46\pic18-lt\cxx-framework\src\traditional\proc\p18f87j50.asm
                 UEP1bits   0x000f4d       data     extern E:\3.46\pic18-lt\cxx-framework\src\traditional\proc\p18f87j50.asm
                     UEP1   0x000f4d       data     extern E:\3.46\pic18-lt\cxx-framework\src\traditional\proc\p18f87j50.asm
                     UEP2   0x000f4e       data     extern E:\3.46\pic18-lt\cxx-framework\src\traditional\proc\p18f87j50.asm
                 UEP2bits   0x000f4e       data     extern E:\3.46\pic18-lt\cxx-framework\src\traditional\proc\p18f87j50.asm
                     UEP3   0x000f4f       data     extern E:\3.46\pic18-lt\cxx-framework\src\traditional\proc\p18f87j50.asm
                 UEP3bits   0x000f4f       data     extern E:\3.46\pic18-lt\cxx-framework\src\traditional\proc\p18f87j50.asm
                     UEP4   0x000f50       data     extern E:\3.46\pic18-lt\cxx-framework\src\traditional\proc\p18f87j50.asm
                 UEP4bits   0x000f50       data     extern E:\3.46\pic18-lt\cxx-framework\src\traditional\proc\p18f87j50.asm
                 UEP5bits   0x000f51       data     extern E:\3.46\pic18-lt\cxx-framework\src\traditional\proc\p18f87j50.asm
                     UEP5   0x000f51       data     extern E:\3.46\pic18-lt\cxx-framework\src\traditional\proc\p18f87j50.asm
                 UEP6bits   0x000f52       data     extern E:\3.46\pic18-lt\cxx-framework\src\traditional\proc\p18f87j50.asm
                     UEP6   0x000f52       data     extern E:\3.46\pic18-lt\cxx-framework\src\traditional\proc\p18f87j50.asm
                 UEP7bits   0x000f53       data     extern E:\3.46\pic18-lt\cxx-framework\src\traditional\proc\p18f87j50.asm
                     UEP7   0x000f53       data     extern E:\3.46\pic18-lt\cxx-framework\src\traditional\proc\p18f87j50.asm
                     UEP8   0x000f54       data     extern E:\3.46\pic18-lt\cxx-framework\src\traditional\proc\p18f87j50.asm
                 UEP8bits   0x000f54       data     extern E:\3.46\pic18-lt\cxx-framework\src\traditional\proc\p18f87j50.asm
                     UEP9   0x000f55       data     extern E:\3.46\pic18-lt\cxx-framework\src\traditional\proc\p18f87j50.asm
                 UEP9bits   0x000f55       data     extern E:\3.46\pic18-lt\cxx-framework\src\traditional\proc\p18f87j50.asm
                    UEP10   0x000f56       data     extern E:\3.46\pic18-lt\cxx-framework\src\traditional\proc\p18f87j50.asm
                UEP10bits   0x000f56       data     extern E:\3.46\pic18-lt\cxx-framework\src\traditional\proc\p18f87j50.asm
                    UEP11   0x000f57       data     extern E:\3.46\pic18-lt\cxx-framework\src\traditional\proc\p18f87j50.asm
                UEP11bits   0x000f57       data     extern E:\3.46\pic18-lt\cxx-framework\src\traditional\proc\p18f87j50.asm
                    UEP12   0x000f58       data     extern E:\3.46\pic18-lt\cxx-framework\src\traditional\proc\p18f87j50.asm
                UEP12bits   0x000f58       data     extern E:\3.46\pic18-lt\cxx-framework\src\traditional\proc\p18f87j50.asm
                UEP13bits   0x000f59       data     extern E:\3.46\pic18-lt\cxx-framework\src\traditional\proc\p18f87j50.asm
                    UEP13   0x000f59       data     extern E:\3.46\pic18-lt\cxx-framework\src\traditional\proc\p18f87j50.asm
                    UEP14   0x000f5a       data     extern E:\3.46\pic18-lt\cxx-framework\src\traditional\proc\p18f87j50.asm
                UEP14bits   0x000f5a       data     extern E:\3.46\pic18-lt\cxx-framework\src\traditional\proc\p18f87j50.asm
                    UEP15   0x000f5b       data     extern E:\3.46\pic18-lt\cxx-framework\src\traditional\proc\p18f87j50.asm
                UEP15bits   0x000f5b       data     extern E:\3.46\pic18-lt\cxx-framework\src\traditional\proc\p18f87j50.asm
                  UIEbits   0x000f5c       data     extern E:\3.46\pic18-lt\cxx-framework\src\traditional\proc\p18f87j50.asm
                      UIE   0x000f5c       data     extern E:\3.46\pic18-lt\cxx-framework\src\traditional\proc\p18f87j50.asm
                     UEIE   0x000f5d       data     extern E:\3.46\pic18-lt\cxx-framework\src\traditional\proc\p18f87j50.asm
                 UEIEbits   0x000f5d       data     extern E:\3.46\pic18-lt\cxx-framework\src\traditional\proc\p18f87j50.asm
                    UADDR   0x000f5e       data     extern E:\3.46\pic18-lt\cxx-framework\src\traditional\proc\p18f87j50.asm
                UADDRbits   0x000f5e       data     extern E:\3.46\pic18-lt\cxx-framework\src\traditional\proc\p18f87j50.asm
                     UCFG   0x000f5f       data     extern E:\3.46\pic18-lt\cxx-framework\src\traditional\proc\p18f87j50.asm
                 UCFGbits   0x000f5f       data     extern E:\3.46\pic18-lt\cxx-framework\src\traditional\proc\p18f87j50.asm
                    UFRML   0x000f60       data     extern E:\3.46\pic18-lt\cxx-framework\src\traditional\proc\p18f87j50.asm
                     UFRM   0x000f60       data     extern E:\3.46\pic18-lt\cxx-framework\src\traditional\proc\p18f87j50.asm
                UFRMLbits   0x000f60       data     extern E:\3.46\pic18-lt\cxx-framework\src\traditional\proc\p18f87j50.asm
                UFRMHbits   0x000f61       data     extern E:\3.46\pic18-lt\cxx-framework\src\traditional\proc\p18f87j50.asm
                    UFRMH   0x000f61       data     extern E:\3.46\pic18-lt\cxx-framework\src\traditional\proc\p18f87j50.asm
                  UIRbits   0x000f62       data     extern E:\3.46\pic18-lt\cxx-framework\src\traditional\proc\p18f87j50.asm
                      UIR   0x000f62       data     extern E:\3.46\pic18-lt\cxx-framework\src\traditional\proc\p18f87j50.asm
                     UEIR   0x000f63       data     extern E:\3.46\pic18-lt\cxx-framework\src\traditional\proc\p18f87j50.asm
                 UEIRbits   0x000f63       data     extern E:\3.46\pic18-lt\cxx-framework\src\traditional\proc\p18f87j50.asm
                USTATbits   0x000f64       data     extern E:\3.46\pic18-lt\cxx-framework\src\traditional\proc\p18f87j50.asm
                    USTAT   0x000f64       data     extern E:\3.46\pic18-lt\cxx-framework\src\traditional\proc\p18f87j50.asm
                 UCONbits   0x000f65       data     extern E:\3.46\pic18-lt\cxx-framework\src\traditional\proc\p18f87j50.asm
                     UCON   0x000f65       data     extern E:\3.46\pic18-lt\cxx-framework\src\traditional\proc\p18f87j50.asm
                   PMDIN1   0x000f66       data     extern E:\3.46\pic18-lt\cxx-framework\src\traditional\proc\p18f87j50.asm
                  PMDIN1L   0x000f66       data     extern E:\3.46\pic18-lt\cxx-framework\src\traditional\proc\p18f87j50.asm
                  PMDIN1H   0x000f67       data     extern E:\3.46\pic18-lt\cxx-framework\src\traditional\proc\p18f87j50.asm
                   PMADDR   0x000f68       data     extern E:\3.46\pic18-lt\cxx-framework\src\traditional\proc\p18f87j50.asm
                 PMDOUT1L   0x000f68       data     extern E:\3.46\pic18-lt\cxx-framework\src\traditional\proc\p18f87j50.asm
                  PMDOUT1   0x000f68       data     extern E:\3.46\pic18-lt\cxx-framework\src\traditional\proc\p18f87j50.asm
                  PMADDRL   0x000f68       data     extern E:\3.46\pic18-lt\cxx-framework\src\traditional\proc\p18f87j50.asm
                 PMDOUT1H   0x000f69       data     extern E:\3.46\pic18-lt\cxx-framework\src\traditional\proc\p18f87j50.asm
              PMADDRHbits   0x000f69       data     extern E:\3.46\pic18-lt\cxx-framework\src\traditional\proc\p18f87j50.asm
                  PMADDRH   0x000f69       data     extern E:\3.46\pic18-lt\cxx-framework\src\traditional\proc\p18f87j50.asm
                 CMSTATUS   0x000f6a       data     extern E:\3.46\pic18-lt\cxx-framework\src\traditional\proc\p18f87j50.asm
             CMSTATUSbits   0x000f6a       data     extern E:\3.46\pic18-lt\cxx-framework\src\traditional\proc\p18f87j50.asm
               CMSTATbits   0x000f6a       data     extern E:\3.46\pic18-lt\cxx-framework\src\traditional\proc\p18f87j50.asm
                   CMSTAT   0x000f6a       data     extern E:\3.46\pic18-lt\cxx-framework\src\traditional\proc\p18f87j50.asm
                 SSP2CON2   0x000f6b       data     extern E:\3.46\pic18-lt\cxx-framework\src\traditional\proc\p18f87j50.asm
             SSP2CON2bits   0x000f6b       data     extern E:\3.46\pic18-lt\cxx-framework\src\traditional\proc\p18f87j50.asm
             SSP2CON1bits   0x000f6c       data     extern E:\3.46\pic18-lt\cxx-framework\src\traditional\proc\p18f87j50.asm
                 SSP2CON1   0x000f6c       data     extern E:\3.46\pic18-lt\cxx-framework\src\traditional\proc\p18f87j50.asm
             SSP2STATbits   0x000f6d       data     extern E:\3.46\pic18-lt\cxx-framework\src\traditional\proc\p18f87j50.asm
                 SSP2STAT   0x000f6d       data     extern E:\3.46\pic18-lt\cxx-framework\src\traditional\proc\p18f87j50.asm
                  SSP2ADD   0x000f6e       data     extern E:\3.46\pic18-lt\cxx-framework\src\traditional\proc\p18f87j50.asm
              SSP2MSKbits   0x000f6e       data     extern E:\3.46\pic18-lt\cxx-framework\src\traditional\proc\p18f87j50.asm
                  SSP2MSK   0x000f6e       data     extern E:\3.46\pic18-lt\cxx-framework\src\traditional\proc\p18f87j50.asm
                  SSP2BUF   0x000f6f       data     extern E:\3.46\pic18-lt\cxx-framework\src\traditional\proc\p18f87j50.asm
              CCP5CONbits   0x000f70       data     extern E:\3.46\pic18-lt\cxx-framework\src\traditional\proc\p18f87j50.asm
                  CCP5CON   0x000f70       data     extern E:\3.46\pic18-lt\cxx-framework\src\traditional\proc\p18f87j50.asm
                   CCPR5L   0x000f71       data     extern E:\3.46\pic18-lt\cxx-framework\src\traditional\proc\p18f87j50.asm
                    CCPR5   0x000f71       data     extern E:\3.46\pic18-lt\cxx-framework\src\traditional\proc\p18f87j50.asm
                   CCPR5H   0x000f72       data     extern E:\3.46\pic18-lt\cxx-framework\src\traditional\proc\p18f87j50.asm
              CCP4CONbits   0x000f73       data     extern E:\3.46\pic18-lt\cxx-framework\src\traditional\proc\p18f87j50.asm
                  CCP4CON   0x000f73       data     extern E:\3.46\pic18-lt\cxx-framework\src\traditional\proc\p18f87j50.asm
                   CCPR4L   0x000f74       data     extern E:\3.46\pic18-lt\cxx-framework\src\traditional\proc\p18f87j50.asm
                    CCPR4   0x000f74       data     extern E:\3.46\pic18-lt\cxx-framework\src\traditional\proc\p18f87j50.asm
                   CCPR4H   0x000f75       data     extern E:\3.46\pic18-lt\cxx-framework\src\traditional\proc\p18f87j50.asm
                T4CONbits   0x000f76       data     extern E:\3.46\pic18-lt\cxx-framework\src\traditional\proc\p18f87j50.asm
                    T4CON   0x000f76       data     extern E:\3.46\pic18-lt\cxx-framework\src\traditional\proc\p18f87j50.asm
                   CVRCON   0x000f77       data     extern E:\3.46\pic18-lt\cxx-framework\src\traditional\proc\p18f87j50.asm
                      PR4   0x000f77       data     extern E:\3.46\pic18-lt\cxx-framework\src\traditional\proc\p18f87j50.asm
               CVRCONbits   0x000f77       data     extern E:\3.46\pic18-lt\cxx-framework\src\traditional\proc\p18f87j50.asm
                     TMR4   0x000f78       data     extern E:\3.46\pic18-lt\cxx-framework\src\traditional\proc\p18f87j50.asm
                    T3CON   0x000f79       data     extern E:\3.46\pic18-lt\cxx-framework\src\traditional\proc\p18f87j50.asm
                T3CONbits   0x000f79       data     extern E:\3.46\pic18-lt\cxx-framework\src\traditional\proc\p18f87j50.asm
                    TMR3L   0x000f7a       data     extern E:\3.46\pic18-lt\cxx-framework\src\traditional\proc\p18f87j50.asm
                    TMR3H   0x000f7b       data     extern E:\3.46\pic18-lt\cxx-framework\src\traditional\proc\p18f87j50.asm
             BAUDCON2bits   0x000f7c       data     extern E:\3.46\pic18-lt\cxx-framework\src\traditional\proc\p18f87j50.asm
                 BAUDCON2   0x000f7c       data     extern E:\3.46\pic18-lt\cxx-framework\src\traditional\proc\p18f87j50.asm
                  SPBRGH2   0x000f7d       data     extern E:\3.46\pic18-lt\cxx-framework\src\traditional\proc\p18f87j50.asm
             BAUDCON1bits   0x000f7e       data     extern E:\3.46\pic18-lt\cxx-framework\src\traditional\proc\p18f87j50.asm
              BAUDCONbits   0x000f7e       data     extern E:\3.46\pic18-lt\cxx-framework\src\traditional\proc\p18f87j50.asm
                 BAUDCON1   0x000f7e       data     extern E:\3.46\pic18-lt\cxx-framework\src\traditional\proc\p18f87j50.asm
                  BAUDCON   0x000f7e       data     extern E:\3.46\pic18-lt\cxx-framework\src\traditional\proc\p18f87j50.asm
                  SPBRGH1   0x000f7f       data     extern E:\3.46\pic18-lt\cxx-framework\src\traditional\proc\p18f87j50.asm
                   SPBRGH   0x000f7f       data     extern E:\3.46\pic18-lt\cxx-framework\src\traditional\proc\p18f87j50.asm
                    PORTA   0x000f80       data     extern E:\3.46\pic18-lt\cxx-framework\src\traditional\proc\p18f87j50.asm
                PORTAbits   0x000f80       data     extern E:\3.46\pic18-lt\cxx-framework\src\traditional\proc\p18f87j50.asm
                    PORTB   0x000f81       data     extern E:\3.46\pic18-lt\cxx-framework\src\traditional\proc\p18f87j50.asm
                PORTBbits   0x000f81       data     extern E:\3.46\pic18-lt\cxx-framework\src\traditional\proc\p18f87j50.asm
                    PORTC   0x000f82       data     extern E:\3.46\pic18-lt\cxx-framework\src\traditional\proc\p18f87j50.asm
                PORTCbits   0x000f82       data     extern E:\3.46\pic18-lt\cxx-framework\src\traditional\proc\p18f87j50.asm
                    PORTD   0x000f83       data     extern E:\3.46\pic18-lt\cxx-framework\src\traditional\proc\p18f87j50.asm
                PORTDbits   0x000f83       data     extern E:\3.46\pic18-lt\cxx-framework\src\traditional\proc\p18f87j50.asm
                    PORTE   0x000f84       data     extern E:\3.46\pic18-lt\cxx-framework\src\traditional\proc\p18f87j50.asm
                PORTEbits   0x000f84       data     extern E:\3.46\pic18-lt\cxx-framework\src\traditional\proc\p18f87j50.asm
                    PORTF   0x000f85       data     extern E:\3.46\pic18-lt\cxx-framework\src\traditional\proc\p18f87j50.asm
                PORTFbits   0x000f85       data     extern E:\3.46\pic18-lt\cxx-framework\src\traditional\proc\p18f87j50.asm
                    PORTG   0x000f86       data     extern E:\3.46\pic18-lt\cxx-framework\src\traditional\proc\p18f87j50.asm
                PORTGbits   0x000f86       data     extern E:\3.46\pic18-lt\cxx-framework\src\traditional\proc\p18f87j50.asm
                    PORTH   0x000f87       data     extern E:\3.46\pic18-lt\cxx-framework\src\traditional\proc\p18f87j50.asm
                PORTHbits   0x000f87       data     extern E:\3.46\pic18-lt\cxx-framework\src\traditional\proc\p18f87j50.asm
                    PORTJ   0x000f88       data     extern E:\3.46\pic18-lt\cxx-framework\src\traditional\proc\p18f87j50.asm
                PORTJbits   0x000f88       data     extern E:\3.46\pic18-lt\cxx-framework\src\traditional\proc\p18f87j50.asm
                     LATA   0x000f89       data     extern E:\3.46\pic18-lt\cxx-framework\src\traditional\proc\p18f87j50.asm
                 LATAbits   0x000f89       data     extern E:\3.46\pic18-lt\cxx-framework\src\traditional\proc\p18f87j50.asm
                     LATB   0x000f8a       data     extern E:\3.46\pic18-lt\cxx-framework\src\traditional\proc\p18f87j50.asm
                 LATBbits   0x000f8a       data     extern E:\3.46\pic18-lt\cxx-framework\src\traditional\proc\p18f87j50.asm
                     LATC   0x000f8b       data     extern E:\3.46\pic18-lt\cxx-framework\src\traditional\proc\p18f87j50.asm
                 LATCbits   0x000f8b       data     extern E:\3.46\pic18-lt\cxx-framework\src\traditional\proc\p18f87j50.asm
                     LATD   0x000f8c       data     extern E:\3.46\pic18-lt\cxx-framework\src\traditional\proc\p18f87j50.asm
                 LATDbits   0x000f8c       data     extern E:\3.46\pic18-lt\cxx-framework\src\traditional\proc\p18f87j50.asm
                     LATE   0x000f8d       data     extern E:\3.46\pic18-lt\cxx-framework\src\traditional\proc\p18f87j50.asm
                 LATEbits   0x000f8d       data     extern E:\3.46\pic18-lt\cxx-framework\src\traditional\proc\p18f87j50.asm
                     LATF   0x000f8e       data     extern E:\3.46\pic18-lt\cxx-framework\src\traditional\proc\p18f87j50.asm
                 LATFbits   0x000f8e       data     extern E:\3.46\pic18-lt\cxx-framework\src\traditional\proc\p18f87j50.asm
                     LATG   0x000f8f       data     extern E:\3.46\pic18-lt\cxx-framework\src\traditional\proc\p18f87j50.asm
                 LATGbits   0x000f8f       data     extern E:\3.46\pic18-lt\cxx-framework\src\traditional\proc\p18f87j50.asm
                     LATH   0x000f90       data     extern E:\3.46\pic18-lt\cxx-framework\src\traditional\proc\p18f87j50.asm
                 LATHbits   0x000f90       data     extern E:\3.46\pic18-lt\cxx-framework\src\traditional\proc\p18f87j50.asm
                     LATJ   0x000f91       data     extern E:\3.46\pic18-lt\cxx-framework\src\traditional\proc\p18f87j50.asm
                 LATJbits   0x000f91       data     extern E:\3.46\pic18-lt\cxx-framework\src\traditional\proc\p18f87j50.asm
                TRISAbits   0x000f92       data     extern E:\3.46\pic18-lt\cxx-framework\src\traditional\proc\p18f87j50.asm
                    TRISA   0x000f92       data     extern E:\3.46\pic18-lt\cxx-framework\src\traditional\proc\p18f87j50.asm
                     DDRA   0x000f92       data     extern E:\3.46\pic18-lt\cxx-framework\src\traditional\proc\p18f87j50.asm
                 DDRAbits   0x000f92       data     extern E:\3.46\pic18-lt\cxx-framework\src\traditional\proc\p18f87j50.asm
                     DDRB   0x000f93       data     extern E:\3.46\pic18-lt\cxx-framework\src\traditional\proc\p18f87j50.asm
                 DDRBbits   0x000f93       data     extern E:\3.46\pic18-lt\cxx-framework\src\traditional\proc\p18f87j50.asm
                    TRISB   0x000f93       data     extern E:\3.46\pic18-lt\cxx-framework\src\traditional\proc\p18f87j50.asm
                TRISBbits   0x000f93       data     extern E:\3.46\pic18-lt\cxx-framework\src\traditional\proc\p18f87j50.asm
                     DDRC   0x000f94       data     extern E:\3.46\pic18-lt\cxx-framework\src\traditional\proc\p18f87j50.asm
                 DDRCbits   0x000f94       data     extern E:\3.46\pic18-lt\cxx-framework\src\traditional\proc\p18f87j50.asm
                    TRISC   0x000f94       data     extern E:\3.46\pic18-lt\cxx-framework\src\traditional\proc\p18f87j50.asm
                TRISCbits   0x000f94       data     extern E:\3.46\pic18-lt\cxx-framework\src\traditional\proc\p18f87j50.asm
                     DDRD   0x000f95       data     extern E:\3.46\pic18-lt\cxx-framework\src\traditional\proc\p18f87j50.asm
                 DDRDbits   0x000f95       data     extern E:\3.46\pic18-lt\cxx-framework\src\traditional\proc\p18f87j50.asm
                    TRISD   0x000f95       data     extern E:\3.46\pic18-lt\cxx-framework\src\traditional\proc\p18f87j50.asm
                TRISDbits   0x000f95       data     extern E:\3.46\pic18-lt\cxx-framework\src\traditional\proc\p18f87j50.asm
                    TRISE   0x000f96       data     extern E:\3.46\pic18-lt\cxx-framework\src\traditional\proc\p18f87j50.asm
                 DDREbits   0x000f96       data     extern E:\3.46\pic18-lt\cxx-framework\src\traditional\proc\p18f87j50.asm
                     DDRE   0x000f96       data     extern E:\3.46\pic18-lt\cxx-framework\src\traditional\proc\p18f87j50.asm
                TRISEbits   0x000f96       data     extern E:\3.46\pic18-lt\cxx-framework\src\traditional\proc\p18f87j50.asm
                    TRISF   0x000f97       data     extern E:\3.46\pic18-lt\cxx-framework\src\traditional\proc\p18f87j50.asm
                TRISFbits   0x000f97       data     extern E:\3.46\pic18-lt\cxx-framework\src\traditional\proc\p18f87j50.asm
                 DDRFbits   0x000f97       data     extern E:\3.46\pic18-lt\cxx-framework\src\traditional\proc\p18f87j50.asm
                     DDRF   0x000f97       data     extern E:\3.46\pic18-lt\cxx-framework\src\traditional\proc\p18f87j50.asm
                TRISGbits   0x000f98       data     extern E:\3.46\pic18-lt\cxx-framework\src\traditional\proc\p18f87j50.asm
                    TRISG   0x000f98       data     extern E:\3.46\pic18-lt\cxx-framework\src\traditional\proc\p18f87j50.asm
                 DDRGbits   0x000f98       data     extern E:\3.46\pic18-lt\cxx-framework\src\traditional\proc\p18f87j50.asm
                     DDRG   0x000f98       data     extern E:\3.46\pic18-lt\cxx-framework\src\traditional\proc\p18f87j50.asm
                TRISHbits   0x000f99       data     extern E:\3.46\pic18-lt\cxx-framework\src\traditional\proc\p18f87j50.asm
                    TRISH   0x000f99       data     extern E:\3.46\pic18-lt\cxx-framework\src\traditional\proc\p18f87j50.asm
                 DDRHbits   0x000f99       data     extern E:\3.46\pic18-lt\cxx-framework\src\traditional\proc\p18f87j50.asm
                     DDRH   0x000f99       data     extern E:\3.46\pic18-lt\cxx-framework\src\traditional\proc\p18f87j50.asm
                    TRISJ   0x000f9a       data     extern E:\3.46\pic18-lt\cxx-framework\src\traditional\proc\p18f87j50.asm
                TRISJbits   0x000f9a       data     extern E:\3.46\pic18-lt\cxx-framework\src\traditional\proc\p18f87j50.asm
                 DDRJbits   0x000f9a       data     extern E:\3.46\pic18-lt\cxx-framework\src\traditional\proc\p18f87j50.asm
                     DDRJ   0x000f9a       data     extern E:\3.46\pic18-lt\cxx-framework\src\traditional\proc\p18f87j50.asm
                  OSCTUNE   0x000f9b       data     extern E:\3.46\pic18-lt\cxx-framework\src\traditional\proc\p18f87j50.asm
              OSCTUNEbits   0x000f9b       data     extern E:\3.46\pic18-lt\cxx-framework\src\traditional\proc\p18f87j50.asm
               RCSTA2bits   0x000f9c       data     extern E:\3.46\pic18-lt\cxx-framework\src\traditional\proc\p18f87j50.asm
                   RCSTA2   0x000f9c       data     extern E:\3.46\pic18-lt\cxx-framework\src\traditional\proc\p18f87j50.asm
                     PIE1   0x000f9d       data     extern E:\3.46\pic18-lt\cxx-framework\src\traditional\proc\p18f87j50.asm
                 PIE1bits   0x000f9d       data     extern E:\3.46\pic18-lt\cxx-framework\src\traditional\proc\p18f87j50.asm
                     PIR1   0x000f9e       data     extern E:\3.46\pic18-lt\cxx-framework\src\traditional\proc\p18f87j50.asm
                 PIR1bits   0x000f9e       data     extern E:\3.46\pic18-lt\cxx-framework\src\traditional\proc\p18f87j50.asm
                 IPR1bits   0x000f9f       data     extern E:\3.46\pic18-lt\cxx-framework\src\traditional\proc\p18f87j50.asm
                     IPR1   0x000f9f       data     extern E:\3.46\pic18-lt\cxx-framework\src\traditional\proc\p18f87j50.asm
                     PIE2   0x000fa0       data     extern E:\3.46\pic18-lt\cxx-framework\src\traditional\proc\p18f87j50.asm
                 PIE2bits   0x000fa0       data     extern E:\3.46\pic18-lt\cxx-framework\src\traditional\proc\p18f87j50.asm
                     PIR2   0x000fa1       data     extern E:\3.46\pic18-lt\cxx-framework\src\traditional\proc\p18f87j50.asm
                 PIR2bits   0x000fa1       data     extern E:\3.46\pic18-lt\cxx-framework\src\traditional\proc\p18f87j50.asm
                     IPR2   0x000fa2       data     extern E:\3.46\pic18-lt\cxx-framework\src\traditional\proc\p18f87j50.asm
                 IPR2bits   0x000fa2       data     extern E:\3.46\pic18-lt\cxx-framework\src\traditional\proc\p18f87j50.asm
                     PIE3   0x000fa3       data     extern E:\3.46\pic18-lt\cxx-framework\src\traditional\proc\p18f87j50.asm
                 PIE3bits   0x000fa3       data     extern E:\3.46\pic18-lt\cxx-framework\src\traditional\proc\p18f87j50.asm
                 PIR3bits   0x000fa4       data     extern E:\3.46\pic18-lt\cxx-framework\src\traditional\proc\p18f87j50.asm
                     PIR3   0x000fa4       data     extern E:\3.46\pic18-lt\cxx-framework\src\traditional\proc\p18f87j50.asm
                     IPR3   0x000fa5       data     extern E:\3.46\pic18-lt\cxx-framework\src\traditional\proc\p18f87j50.asm
                 IPR3bits   0x000fa5       data     extern E:\3.46\pic18-lt\cxx-framework\src\traditional\proc\p18f87j50.asm
                   EECON1   0x000fa6       data     extern E:\3.46\pic18-lt\cxx-framework\src\traditional\proc\p18f87j50.asm
               EECON1bits   0x000fa6       data     extern E:\3.46\pic18-lt\cxx-framework\src\traditional\proc\p18f87j50.asm
                   EECON2   0x000fa7       data     extern E:\3.46\pic18-lt\cxx-framework\src\traditional\proc\p18f87j50.asm
               TXSTA2bits   0x000fa8       data     extern E:\3.46\pic18-lt\cxx-framework\src\traditional\proc\p18f87j50.asm
                   TXSTA2   0x000fa8       data     extern E:\3.46\pic18-lt\cxx-framework\src\traditional\proc\p18f87j50.asm
                   TXREG2   0x000fa9       data     extern E:\3.46\pic18-lt\cxx-framework\src\traditional\proc\p18f87j50.asm
                   RCREG2   0x000faa       data     extern E:\3.46\pic18-lt\cxx-framework\src\traditional\proc\p18f87j50.asm
                   SPBRG2   0x000fab       data     extern E:\3.46\pic18-lt\cxx-framework\src\traditional\proc\p18f87j50.asm
                    RCSTA   0x000fac       data     extern E:\3.46\pic18-lt\cxx-framework\src\traditional\proc\p18f87j50.asm
                RCSTAbits   0x000fac       data     extern E:\3.46\pic18-lt\cxx-framework\src\traditional\proc\p18f87j50.asm
               RCSTA1bits   0x000fac       data     extern E:\3.46\pic18-lt\cxx-framework\src\traditional\proc\p18f87j50.asm
                   RCSTA1   0x000fac       data     extern E:\3.46\pic18-lt\cxx-framework\src\traditional\proc\p18f87j50.asm
                    TXSTA   0x000fad       data     extern E:\3.46\pic18-lt\cxx-framework\src\traditional\proc\p18f87j50.asm
                   TXSTA1   0x000fad       data     extern E:\3.46\pic18-lt\cxx-framework\src\traditional\proc\p18f87j50.asm
               TXSTA1bits   0x000fad       data     extern E:\3.46\pic18-lt\cxx-framework\src\traditional\proc\p18f87j50.asm
                TXSTAbits   0x000fad       data     extern E:\3.46\pic18-lt\cxx-framework\src\traditional\proc\p18f87j50.asm
                    TXREG   0x000fae       data     extern E:\3.46\pic18-lt\cxx-framework\src\traditional\proc\p18f87j50.asm
                   TXREG1   0x000fae       data     extern E:\3.46\pic18-lt\cxx-framework\src\traditional\proc\p18f87j50.asm
                   RCREG1   0x000faf       data     extern E:\3.46\pic18-lt\cxx-framework\src\traditional\proc\p18f87j50.asm
                    RCREG   0x000faf       data     extern E:\3.46\pic18-lt\cxx-framework\src\traditional\proc\p18f87j50.asm
                    SPBRG   0x000fb0       data     extern E:\3.46\pic18-lt\cxx-framework\src\traditional\proc\p18f87j50.asm
                   SPBRG1   0x000fb0       data     extern E:\3.46\pic18-lt\cxx-framework\src\traditional\proc\p18f87j50.asm
                  CCP3CON   0x000fb1       data     extern E:\3.46\pic18-lt\cxx-framework\src\traditional\proc\p18f87j50.asm
              CCP3CONbits   0x000fb1       data     extern E:\3.46\pic18-lt\cxx-framework\src\traditional\proc\p18f87j50.asm
                 ECCP3CON   0x000fb1       data     extern E:\3.46\pic18-lt\cxx-framework\src\traditional\proc\p18f87j50.asm
             ECCP3CONbits   0x000fb1       data     extern E:\3.46\pic18-lt\cxx-framework\src\traditional\proc\p18f87j50.asm
                    CCPR3   0x000fb2       data     extern E:\3.46\pic18-lt\cxx-framework\src\traditional\proc\p18f87j50.asm
                   CCPR3L   0x000fb2       data     extern E:\3.46\pic18-lt\cxx-framework\src\traditional\proc\p18f87j50.asm
                   CCPR3H   0x000fb3       data     extern E:\3.46\pic18-lt\cxx-framework\src\traditional\proc\p18f87j50.asm
                 ECCP3DEL   0x000fb4       data     extern E:\3.46\pic18-lt\cxx-framework\src\traditional\proc\p18f87j50.asm
             ECCP3DELbits   0x000fb4       data     extern E:\3.46\pic18-lt\cxx-framework\src\traditional\proc\p18f87j50.asm
                  ECCP3AS   0x000fb5       data     extern E:\3.46\pic18-lt\cxx-framework\src\traditional\proc\p18f87j50.asm
              ECCP3ASbits   0x000fb5       data     extern E:\3.46\pic18-lt\cxx-framework\src\traditional\proc\p18f87j50.asm
             ECCP2CONbits   0x000fb6       data     extern E:\3.46\pic18-lt\cxx-framework\src\traditional\proc\p18f87j50.asm
                 ECCP2CON   0x000fb6       data     extern E:\3.46\pic18-lt\cxx-framework\src\traditional\proc\p18f87j50.asm
                  CCP2CON   0x000fb6       data     extern E:\3.46\pic18-lt\cxx-framework\src\traditional\proc\p18f87j50.asm
              CCP2CONbits   0x000fb6       data     extern E:\3.46\pic18-lt\cxx-framework\src\traditional\proc\p18f87j50.asm
                    CCPR2   0x000fb7       data     extern E:\3.46\pic18-lt\cxx-framework\src\traditional\proc\p18f87j50.asm
                   CCPR2L   0x000fb7       data     extern E:\3.46\pic18-lt\cxx-framework\src\traditional\proc\p18f87j50.asm
                   CCPR2H   0x000fb8       data     extern E:\3.46\pic18-lt\cxx-framework\src\traditional\proc\p18f87j50.asm
                 ECCP2DEL   0x000fb9       data     extern E:\3.46\pic18-lt\cxx-framework\src\traditional\proc\p18f87j50.asm
             ECCP2DELbits   0x000fb9       data     extern E:\3.46\pic18-lt\cxx-framework\src\traditional\proc\p18f87j50.asm
                  ECCP2AS   0x000fba       data     extern E:\3.46\pic18-lt\cxx-framework\src\traditional\proc\p18f87j50.asm
              ECCP2ASbits   0x000fba       data     extern E:\3.46\pic18-lt\cxx-framework\src\traditional\proc\p18f87j50.asm
                 ECCP1CON   0x000fbb       data     extern E:\3.46\pic18-lt\cxx-framework\src\traditional\proc\p18f87j50.asm
             ECCP1CONbits   0x000fbb       data     extern E:\3.46\pic18-lt\cxx-framework\src\traditional\proc\p18f87j50.asm
              CCP1CONbits   0x000fbb       data     extern E:\3.46\pic18-lt\cxx-framework\src\traditional\proc\p18f87j50.asm
                  CCP1CON   0x000fbb       data     extern E:\3.46\pic18-lt\cxx-framework\src\traditional\proc\p18f87j50.asm
                    CCPR1   0x000fbc       data     extern E:\3.46\pic18-lt\cxx-framework\src\traditional\proc\p18f87j50.asm
                   CCPR1L   0x000fbc       data     extern E:\3.46\pic18-lt\cxx-framework\src\traditional\proc\p18f87j50.asm
                   CCPR1H   0x000fbd       data     extern E:\3.46\pic18-lt\cxx-framework\src\traditional\proc\p18f87j50.asm
                 ECCP1DEL   0x000fbe       data     extern E:\3.46\pic18-lt\cxx-framework\src\traditional\proc\p18f87j50.asm
             ECCP1DELbits   0x000fbe       data     extern E:\3.46\pic18-lt\cxx-framework\src\traditional\proc\p18f87j50.asm
              ECCP1ASbits   0x000fbf       data     extern E:\3.46\pic18-lt\cxx-framework\src\traditional\proc\p18f87j50.asm
                  ECCP1AS   0x000fbf       data     extern E:\3.46\pic18-lt\cxx-framework\src\traditional\proc\p18f87j50.asm
               WDTCONbits   0x000fc0       data     extern E:\3.46\pic18-lt\cxx-framework\src\traditional\proc\p18f87j50.asm
                   WDTCON   0x000fc0       data     extern E:\3.46\pic18-lt\cxx-framework\src\traditional\proc\p18f87j50.asm
               ANCON0bits   0x000fc1       data     extern E:\3.46\pic18-lt\cxx-framework\src\traditional\proc\p18f87j50.asm
                   ANCON0   0x000fc1       data     extern E:\3.46\pic18-lt\cxx-framework\src\traditional\proc\p18f87j50.asm
               ADCON1bits   0x000fc1       data     extern E:\3.46\pic18-lt\cxx-framework\src\traditional\proc\p18f87j50.asm
                   ADCON1   0x000fc1       data     extern E:\3.46\pic18-lt\cxx-framework\src\traditional\proc\p18f87j50.asm
                   ADCON0   0x000fc2       data     extern E:\3.46\pic18-lt\cxx-framework\src\traditional\proc\p18f87j50.asm
               ADCON0bits   0x000fc2       data     extern E:\3.46\pic18-lt\cxx-framework\src\traditional\proc\p18f87j50.asm
               ANCON1bits   0x000fc2       data     extern E:\3.46\pic18-lt\cxx-framework\src\traditional\proc\p18f87j50.asm
                   ANCON1   0x000fc2       data     extern E:\3.46\pic18-lt\cxx-framework\src\traditional\proc\p18f87j50.asm
                    ADRES   0x000fc3       data     extern E:\3.46\pic18-lt\cxx-framework\src\traditional\proc\p18f87j50.asm
                   ADRESL   0x000fc3       data     extern E:\3.46\pic18-lt\cxx-framework\src\traditional\proc\p18f87j50.asm
                   ADRESH   0x000fc4       data     extern E:\3.46\pic18-lt\cxx-framework\src\traditional\proc\p18f87j50.asm
                 SSP1CON2   0x000fc5       data     extern E:\3.46\pic18-lt\cxx-framework\src\traditional\proc\p18f87j50.asm
             SSP1CON2bits   0x000fc5       data     extern E:\3.46\pic18-lt\cxx-framework\src\traditional\proc\p18f87j50.asm
                  SSPCON2   0x000fc5       data     extern E:\3.46\pic18-lt\cxx-framework\src\traditional\proc\p18f87j50.asm
              SSPCON2bits   0x000fc5       data     extern E:\3.46\pic18-lt\cxx-framework\src\traditional\proc\p18f87j50.asm
              SSPCON1bits   0x000fc6       data     extern E:\3.46\pic18-lt\cxx-framework\src\traditional\proc\p18f87j50.asm
                 SSP1CON1   0x000fc6       data     extern E:\3.46\pic18-lt\cxx-framework\src\traditional\proc\p18f87j50.asm
                  SSPCON1   0x000fc6       data     extern E:\3.46\pic18-lt\cxx-framework\src\traditional\proc\p18f87j50.asm
             SSP1CON1bits   0x000fc6       data     extern E:\3.46\pic18-lt\cxx-framework\src\traditional\proc\p18f87j50.asm
                  SSPSTAT   0x000fc7       data     extern E:\3.46\pic18-lt\cxx-framework\src\traditional\proc\p18f87j50.asm
              SSPSTATbits   0x000fc7       data     extern E:\3.46\pic18-lt\cxx-framework\src\traditional\proc\p18f87j50.asm
             SSP1STATbits   0x000fc7       data     extern E:\3.46\pic18-lt\cxx-framework\src\traditional\proc\p18f87j50.asm
                 SSP1STAT   0x000fc7       data     extern E:\3.46\pic18-lt\cxx-framework\src\traditional\proc\p18f87j50.asm
                   SSPADD   0x000fc8       data     extern E:\3.46\pic18-lt\cxx-framework\src\traditional\proc\p18f87j50.asm
              SSP1MSKbits   0x000fc8       data     extern E:\3.46\pic18-lt\cxx-framework\src\traditional\proc\p18f87j50.asm
                  SSP1MSK   0x000fc8       data     extern E:\3.46\pic18-lt\cxx-framework\src\traditional\proc\p18f87j50.asm
                  SSP1ADD   0x000fc8       data     extern E:\3.46\pic18-lt\cxx-framework\src\traditional\proc\p18f87j50.asm
                   SSPBUF   0x000fc9       data     extern E:\3.46\pic18-lt\cxx-framework\src\traditional\proc\p18f87j50.asm
                  SSP1BUF   0x000fc9       data     extern E:\3.46\pic18-lt\cxx-framework\src\traditional\proc\p18f87j50.asm
                    T2CON   0x000fca       data     extern E:\3.46\pic18-lt\cxx-framework\src\traditional\proc\p18f87j50.asm
                T2CONbits   0x000fca       data     extern E:\3.46\pic18-lt\cxx-framework\src\traditional\proc\p18f87j50.asm
                      PR2   0x000fcb       data     extern E:\3.46\pic18-lt\cxx-framework\src\traditional\proc\p18f87j50.asm
               MEMCONbits   0x000fcb       data     extern E:\3.46\pic18-lt\cxx-framework\src\traditional\proc\p18f87j50.asm
                   MEMCON   0x000fcb       data     extern E:\3.46\pic18-lt\cxx-framework\src\traditional\proc\p18f87j50.asm
              PADCFG1bits   0x000fcc       data     extern E:\3.46\pic18-lt\cxx-framework\src\traditional\proc\p18f87j50.asm
                  PADCFG1   0x000fcc       data     extern E:\3.46\pic18-lt\cxx-framework\src\traditional\proc\p18f87j50.asm
                     TMR2   0x000fcc       data     extern E:\3.46\pic18-lt\cxx-framework\src\traditional\proc\p18f87j50.asm
               ODCON3bits   0x000fcd       data     extern E:\3.46\pic18-lt\cxx-framework\src\traditional\proc\p18f87j50.asm
                   ODCON3   0x000fcd       data     extern E:\3.46\pic18-lt\cxx-framework\src\traditional\proc\p18f87j50.asm
                    T1CON   0x000fcd       data     extern E:\3.46\pic18-lt\cxx-framework\src\traditional\proc\p18f87j50.asm
                T1CONbits   0x000fcd       data     extern E:\3.46\pic18-lt\cxx-framework\src\traditional\proc\p18f87j50.asm
               ODCON2bits   0x000fce       data     extern E:\3.46\pic18-lt\cxx-framework\src\traditional\proc\p18f87j50.asm
                   ODCON2   0x000fce       data     extern E:\3.46\pic18-lt\cxx-framework\src\traditional\proc\p18f87j50.asm
                    TMR1L   0x000fce       data     extern E:\3.46\pic18-lt\cxx-framework\src\traditional\proc\p18f87j50.asm
                   ODCON1   0x000fcf       data     extern E:\3.46\pic18-lt\cxx-framework\src\traditional\proc\p18f87j50.asm
               ODCON1bits   0x000fcf       data     extern E:\3.46\pic18-lt\cxx-framework\src\traditional\proc\p18f87j50.asm
                    TMR1H   0x000fcf       data     extern E:\3.46\pic18-lt\cxx-framework\src\traditional\proc\p18f87j50.asm
                 RCONbits   0x000fd0       data     extern E:\3.46\pic18-lt\cxx-framework\src\traditional\proc\p18f87j50.asm
                     RCON   0x000fd0       data     extern E:\3.46\pic18-lt\cxx-framework\src\traditional\proc\p18f87j50.asm
                   CM2CON   0x000fd1       data     extern E:\3.46\pic18-lt\cxx-framework\src\traditional\proc\p18f87j50.asm
                  CM2CON1   0x000fd1       data     extern E:\3.46\pic18-lt\cxx-framework\src\traditional\proc\p18f87j50.asm
               CM2CONbits   0x000fd1       data     extern E:\3.46\pic18-lt\cxx-framework\src\traditional\proc\p18f87j50.asm
              CM2CON1bits   0x000fd1       data     extern E:\3.46\pic18-lt\cxx-framework\src\traditional\proc\p18f87j50.asm
                   CM1CON   0x000fd2       data     extern E:\3.46\pic18-lt\cxx-framework\src\traditional\proc\p18f87j50.asm
               CM1CONbits   0x000fd2       data     extern E:\3.46\pic18-lt\cxx-framework\src\traditional\proc\p18f87j50.asm
                  CM1CON1   0x000fd2       data     extern E:\3.46\pic18-lt\cxx-framework\src\traditional\proc\p18f87j50.asm
              CM1CON1bits   0x000fd2       data     extern E:\3.46\pic18-lt\cxx-framework\src\traditional\proc\p18f87j50.asm
                   OSCCON   0x000fd3       data     extern E:\3.46\pic18-lt\cxx-framework\src\traditional\proc\p18f87j50.asm
               OSCCONbits   0x000fd3       data     extern E:\3.46\pic18-lt\cxx-framework\src\traditional\proc\p18f87j50.asm
              REFOCONbits   0x000fd3       data     extern E:\3.46\pic18-lt\cxx-framework\src\traditional\proc\p18f87j50.asm
                  REFOCON   0x000fd3       data     extern E:\3.46\pic18-lt\cxx-framework\src\traditional\proc\p18f87j50.asm
                T0CONbits   0x000fd5       data     extern E:\3.46\pic18-lt\cxx-framework\src\traditional\proc\p18f87j50.asm
                    T0CON   0x000fd5       data     extern E:\3.46\pic18-lt\cxx-framework\src\traditional\proc\p18f87j50.asm
                    TMR0L   0x000fd6       data     extern E:\3.46\pic18-lt\cxx-framework\src\traditional\proc\p18f87j50.asm
                    TMR0H   0x000fd7       data     extern E:\3.46\pic18-lt\cxx-framework\src\traditional\proc\p18f87j50.asm
               STATUSbits   0x000fd8       data     extern E:\3.46\pic18-lt\cxx-framework\src\traditional\proc\p18f87j50.asm
                   STATUS   0x000fd8       data     extern E:\3.46\pic18-lt\cxx-framework\src\traditional\proc\p18f87j50.asm
                    FSR2L   0x000fd9       data     extern E:\3.46\pic18-lt\cxx-framework\src\traditional\proc\p18f87j50.asm
                     FSR2   0x000fd9       data     extern E:\3.46\pic18-lt\cxx-framework\src\traditional\proc\p18f87j50.asm
                    FSR2H   0x000fda       data     extern E:\3.46\pic18-lt\cxx-framework\src\traditional\proc\p18f87j50.asm
                   PLUSW2   0x000fdb       data     extern E:\3.46\pic18-lt\cxx-framework\src\traditional\proc\p18f87j50.asm
                  PREINC2   0x000fdc       data     extern E:\3.46\pic18-lt\cxx-framework\src\traditional\proc\p18f87j50.asm
                 POSTDEC2   0x000fdd       data     extern E:\3.46\pic18-lt\cxx-framework\src\traditional\proc\p18f87j50.asm
                 POSTINC2   0x000fde       data     extern E:\3.46\pic18-lt\cxx-framework\src\traditional\proc\p18f87j50.asm
                    INDF2   0x000fdf       data     extern E:\3.46\pic18-lt\cxx-framework\src\traditional\proc\p18f87j50.asm
                      BSR   0x000fe0       data     extern E:\3.46\pic18-lt\cxx-framework\src\traditional\proc\p18f87j50.asm
                     FSR1   0x000fe1       data     extern E:\3.46\pic18-lt\cxx-framework\src\traditional\proc\p18f87j50.asm
                    FSR1L   0x000fe1       data     extern E:\3.46\pic18-lt\cxx-framework\src\traditional\proc\p18f87j50.asm
                    FSR1H   0x000fe2       data     extern E:\3.46\pic18-lt\cxx-framework\src\traditional\proc\p18f87j50.asm
                   PLUSW1   0x000fe3       data     extern E:\3.46\pic18-lt\cxx-framework\src\traditional\proc\p18f87j50.asm
                  PREINC1   0x000fe4       data     extern E:\3.46\pic18-lt\cxx-framework\src\traditional\proc\p18f87j50.asm
                 POSTDEC1   0x000fe5       data     extern E:\3.46\pic18-lt\cxx-framework\src\traditional\proc\p18f87j50.asm
                 POSTINC1   0x000fe6       data     extern E:\3.46\pic18-lt\cxx-framework\src\traditional\proc\p18f87j50.asm
                    INDF1   0x000fe7       data     extern E:\3.46\pic18-lt\cxx-framework\src\traditional\proc\p18f87j50.asm
                     WREG   0x000fe8       data     extern E:\3.46\pic18-lt\cxx-framework\src\traditional\proc\p18f87j50.asm
                    FSR0L   0x000fe9       data     extern E:\3.46\pic18-lt\cxx-framework\src\traditional\proc\p18f87j50.asm
                     FSR0   0x000fe9       data     extern E:\3.46\pic18-lt\cxx-framework\src\traditional\proc\p18f87j50.asm
                    FSR0H   0x000fea       data     extern E:\3.46\pic18-lt\cxx-framework\src\traditional\proc\p18f87j50.asm
                   PLUSW0   0x000feb       data     extern E:\3.46\pic18-lt\cxx-framework\src\traditional\proc\p18f87j50.asm
                  PREINC0   0x000fec       data     extern E:\3.46\pic18-lt\cxx-framework\src\traditional\proc\p18f87j50.asm
                 POSTDEC0   0x000fed       data     extern E:\3.46\pic18-lt\cxx-framework\src\traditional\proc\p18f87j50.asm
                 POSTINC0   0x000fee       data     extern E:\3.46\pic18-lt\cxx-framework\src\traditional\proc\p18f87j50.asm
                    INDF0   0x000fef       data     extern E:\3.46\pic18-lt\cxx-framework\src\traditional\proc\p18f87j50.asm
                  INTCON3   0x000ff0       data     extern E:\3.46\pic18-lt\cxx-framework\src\traditional\proc\p18f87j50.asm
              INTCON3bits   0x000ff0       data     extern E:\3.46\pic18-lt\cxx-framework\src\traditional\proc\p18f87j50.asm
                  INTCON2   0x000ff1       data     extern E:\3.46\pic18-lt\cxx-framework\src\traditional\proc\p18f87j50.asm
              INTCON2bits   0x000ff1       data     extern E:\3.46\pic18-lt\cxx-framework\src\traditional\proc\p18f87j50.asm
                   INTCON   0x000ff2       data     extern E:\3.46\pic18-lt\cxx-framework\src\traditional\proc\p18f87j50.asm
               INTCONbits   0x000ff2       data     extern E:\3.46\pic18-lt\cxx-framework\src\traditional\proc\p18f87j50.asm
                    PRODL   0x000ff3       data     extern E:\3.46\pic18-lt\cxx-framework\src\traditional\proc\p18f87j50.asm
                     PROD   0x000ff3       data     extern E:\3.46\pic18-lt\cxx-framework\src\traditional\proc\p18f87j50.asm
                    PRODH   0x000ff4       data     extern E:\3.46\pic18-lt\cxx-framework\src\traditional\proc\p18f87j50.asm
                   TABLAT   0x000ff5       data     extern E:\3.46\pic18-lt\cxx-framework\src\traditional\proc\p18f87j50.asm
                   TBLPTR   0x000ff6       data     extern E:\3.46\pic18-lt\cxx-framework\src\traditional\proc\p18f87j50.asm
                  TBLPTRL   0x000ff6       data     extern E:\3.46\pic18-lt\cxx-framework\src\traditional\proc\p18f87j50.asm
                  TBLPTRH   0x000ff7       data     extern E:\3.46\pic18-lt\cxx-framework\src\traditional\proc\p18f87j50.asm
                  TBLPTRU   0x000ff8       data     extern E:\3.46\pic18-lt\cxx-framework\src\traditional\proc\p18f87j50.asm
                      PCL   0x000ff9       data     extern E:\3.46\pic18-lt\cxx-framework\src\traditional\proc\p18f87j50.asm
                       PC   0x000ff9       data     extern E:\3.46\pic18-lt\cxx-framework\src\traditional\proc\p18f87j50.asm
                   PCLATH   0x000ffa       data     extern E:\3.46\pic18-lt\cxx-framework\src\traditional\proc\p18f87j50.asm
                   PCLATU   0x000ffb       data     extern E:\3.46\pic18-lt\cxx-framework\src\traditional\proc\p18f87j50.asm
                   STKPTR   0x000ffc       data     extern E:\3.46\pic18-lt\cxx-framework\src\traditional\proc\p18f87j50.asm
               STKPTRbits   0x000ffc       data     extern E:\3.46\pic18-lt\cxx-framework\src\traditional\proc\p18f87j50.asm
                      TOS   0x000ffd       data     extern E:\3.46\pic18-lt\cxx-framework\src\traditional\proc\p18f87j50.asm
                     TOSL   0x000ffd       data     extern E:\3.46\pic18-lt\cxx-framework\src\traditional\proc\p18f87j50.asm
                     TOSH   0x000ffe       data     extern E:\3.46\pic18-lt\cxx-framework\src\traditional\proc\p18f87j50.asm
                     TOSU   0x000fff       data     extern E:\3.46\pic18-lt\cxx-framework\src\traditional\proc\p18f87j50.asm


